032032: 7000                       moveq   #$0, D0
032034: 7C00                       moveq   #$0, D6
032036: 1B40 8F9E                  move.b  D0, (-$7062,A5)		/FF0F9E
03203A: 1B40 8F9F                  move.b  D0, (-$7061,A5)
03203E: 1B40 8FA0                  move.b  D0, (-$7060,A5)
032042: 41ED 3274                  lea     ($3274,A5), A0		/1P
032046: 4A2D 3274                  tst.b   ($3274,A5)			/1P是否在玩
03204A: 6700 0006                  beq     $32052
03204E: 08C6 0001                  bset    #$1, D6				/1P在玩，D6=2
032052: 4A2D 33F4                  tst.b   ($33f4,A5)			/2P是否在玩
032056: 6700 0006                  beq     $3205e
03205A: 08C6 0002                  bset    #$2, D6				/2P在玩，D6=2+4=6
03205E: 4A2D 3574                  tst.b   ($3574,A5)			/3P是否在玩
032062: 6700 0006                  beq     $3206a
032066: 08C6 0003                  bset    #$3, D6			/3P在玩，D6=2+4+8=E
03206A: 4A06                       tst.b   D6
03206C: 6700 0308                  beq     $32376
032070: 41ED 8F9E                  lea     (-$7062,A5), A0	
032074: 7010                       moveq   #$10, D0
032076: 0806 0001                  btst    #$1, D6
03207A: 6700 0006                  beq     $32082
03207E: 102D 3354                  move.b  ($3354,A5), D0		/（基址+E0），由（+E4）移入，被盯上的敌兵个数
032082: 0806 0002                  btst    #$2, D6
032086: 6700 0012                  beq     $3209a
03208A: B02D 34D4                  cmp.b   ($34d4,A5), D0		/对比2P和1P的（+E0）内存
03208E: 6500 000A                  bcs     $3209a				/1P<2P，跳	
032092: 41ED 8F9F                  lea     (-$7061,A5), A0		/
032096: 102D 34D4                  move.b  ($34d4,A5), D0
03209A: 0806 0003                  btst    #$3, D6
03209E: 6700 0012                  beq     $320b2
0320A2: B02D 3654                  cmp.b   ($3654,A5), D0		/
0320A6: 6500 000A                  bcs     $320b2
0320AA: 41ED 8FA0                  lea     (-$7060,A5), A0
0320AE: 102D 3654                  move.b  ($3654,A5), D0
0320B2: 0C00 0003                  cmpi.b  #$3, D0			/（+E0）大于等于3意味着什么？
0320B6: 6400 000A                  bcc     $320c2			/D0大于等于3，则跳
0320BA: 10BC 0001                  move.b  #$1, (A0)
0320BE: 6000 0284                  bra     $32344
0320C2: 70FF                       moveq   #-$1, D0
0320C4: 0806 0001                  btst    #$1, D6
0320C8: 6700 0020                  beq     $320ea
0320CC: 302D 327C                  move.w  ($327c,A5), D0
0320D0: 906E 0008                  sub.w   ($8,A6), D0
0320D4: 6A00 0004                  bpl     $320da
0320D8: 4440                       neg.w   D0
0320DA: 362D 3284                  move.w  ($3284,A5), D3
0320DE: 966E 0010                  sub.w   ($10,A6), D3
0320E2: 6A00 0004                  bpl     $320e8
0320E6: 4443                       neg.w   D3
0320E8: D043                       add.w   D3, D0
0320EA: 72FF                       moveq   #-$1, D1
0320EC: 0806 0002                  btst    #$2, D6
0320F0: 6700 0020                  beq     $32112
0320F4: 322D 33FC                  move.w  ($33fc,A5), D1
0320F8: 926E 0008                  sub.w   ($8,A6), D1
0320FC: 6A00 0004                  bpl     $32102
032100: 4441                       neg.w   D1
032102: 362D 3404                  move.w  ($3404,A5), D3
032106: 966E 0010                  sub.w   ($10,A6), D3
03210A: 6A00 0004                  bpl     $32110
03210E: 4443                       neg.w   D3
032110: D243                       add.w   D3, D1
032112: 74FF                       moveq   #-$1, D2
032114: 0806 0003                  btst    #$3, D6
032118: 6700 0020                  beq     $3213a
03211C: 342D 357C                  move.w  ($357c,A5), D2
032120: 946E 0008                  sub.w   ($8,A6), D2
032124: 6A00 0004                  bpl     $3212a
032128: 4442                       neg.w   D2
03212A: 362D 3584                  move.w  ($3584,A5), D3
03212E: 966E 0010                  sub.w   ($10,A6), D3
032132: 6A00 0004                  bpl     $32138
032136: 4443                       neg.w   D3
032138: D443                       add.w   D3, D2
03213A: 41ED 8F9E                  lea     (-$7062,A5), A0
03213E: B240                       cmp.w   D0, D1
032140: 6400 0008                  bcc     $3214a
032144: C141                       exg     D0, D1
032146: 41ED 8F9F                  lea     (-$7061,A5), A0
03214A: B440                       cmp.w   D0, D2
03214C: 6400 0008                  bcc     $32156
032150: C142                       exg     D0, D2
032152: 41ED 8FA0                  lea     (-$7060,A5), A0
032156: 10BC 000A                  move.b  #$a, (A0)
03215A: 7000                       moveq   #$0, D0
03215C: 0806 0001                  btst    #$1, D6
032160: 6700 000A                  beq     $3216c
032164: 202D 3374                  move.l  ($3374,A5), D0
032168: 41ED 8F9E                  lea     (-$7062,A5), A0
03216C: 0806 0002                  btst    #$2, D6
032170: 6700 0012                  beq     $32184
032174: B0AD 34F4                  cmp.l   ($34f4,A5), D0
032178: 6400 000A                  bcc     $32184
03217C: 202D 34F4                  move.l  ($34f4,A5), D0
032180: 41ED 8F9F                  lea     (-$7061,A5), A0
032184: 0806 0003                  btst    #$3, D6
032188: 6700 0012                  beq     $3219c
03218C: B0AD 3674                  cmp.l   ($3674,A5), D0
032190: 6400 000A                  bcc     $3219c
032194: 202D 3674                  move.l  ($3674,A5), D0
032198: 41ED 8FA0                  lea     (-$7060,A5), A0
03219C: 5210                       addq.b  #1, (A0)
03219E: 7000                       moveq   #$0, D0
0321A0: 0806 0001                  btst    #$1, D6
0321A4: 6700 000A                  beq     $321b0
0321A8: 302D 32E0                  move.w  ($32e0,A5), D0
0321AC: 41ED 8F9E                  lea     (-$7062,A5), A0
0321B0: 0806 0002                  btst    #$2, D6
0321B4: 6700 0012                  beq     $321c8
0321B8: B06D 3460                  cmp.w   ($3460,A5), D0
0321BC: 6400 000A                  bcc     $321c8
0321C0: 302D 3460                  move.w  ($3460,A5), D0
0321C4: 41ED 8F9F                  lea     (-$7061,A5), A0
0321C8: 0806 0003                  btst    #$3, D6
0321CC: 6700 0012                  beq     $321e0
0321D0: B06D 35E0                  cmp.w   ($35e0,A5), D0
0321D4: 6400 000A                  bcc     $321e0
0321D8: 302D 35E0                  move.w  ($35e0,A5), D0
0321DC: 41ED 8FA0                  lea     (-$7060,A5), A0
0321E0: 5410                       addq.b  #2, (A0)
0321E2: 0806 0001                  btst    #$1, D6
0321E6: 6700 0070                  beq     $32258
0321EA: 302D 3314                  move.w  ($3314,A5), D0
0321EE: 6700 002C                  beq     $3221c
0321F2: 3200                       move.w  D0, D1
0321F4: 0240 0F00                  andi.w  #$f00, D0
0321F8: 0C40 0200                  cmpi.w  #$200, D0
0321FC: 6600 001E                  bne     $3221c
032200: 0C01 0004                  cmpi.b  #$4, D1
032204: 6500 0012                  bcs     $32218
032208: 0C01 000A                  cmpi.b  #$a, D1
03220C: 6400 000A                  bcc     $32218
032210: 5C2D 8F9E                  addq.b  #6, (-$7062,A5)
032214: 6000 0006                  bra     $3221c
032218: 562D 8F9E                  addq.b  #3, (-$7062,A5)
03221C: 302E 0008                  move.w  ($8,A6), D0
032220: 906D 327C                  sub.w   ($327c,A5), D0
032224: 6500 000E                  bcs     $32234
032228: 4A2E 0024                  tst.b   ($24,A6)
03222C: 6700 000E                  beq     $3223c
032230: 6000 000E                  bra     $32240
032234: 4A2E 0024                  tst.b   ($24,A6)
032238: 6600 0006                  bne     $32240
03223C: 582D 8F9E                  addq.b  #4, (-$7062,A5)
032240: 0C6D 0200 3278             cmpi.w  #$200, ($3278,A5)
032246: 6600 0010                  bne     $32258
03224A: 0C2D 0002 327A             cmpi.b  #$2, ($327a,A5)
032250: 6600 0006                  bne     $32258
032254: 562D 8F9E                  addq.b  #3, (-$7062,A5)
032258: 0806 0002                  btst    #$2, D6
03225C: 6700 0070                  beq     $322ce
032260: 302D 3494                  move.w  ($3494,A5), D0
032264: 6700 002C                  beq     $32292
032268: 3200                       move.w  D0, D1
03226A: 0240 0F00                  andi.w  #$f00, D0
03226E: 0C40 0200                  cmpi.w  #$200, D0
032272: 6600 001E                  bne     $32292
032276: 0C01 0004                  cmpi.b  #$4, D1
03227A: 6500 0012                  bcs     $3228e
03227E: 0C01 000A                  cmpi.b  #$a, D1
032282: 6400 000A                  bcc     $3228e
032286: 5C2D 8F9F                  addq.b  #6, (-$7061,A5)
03228A: 6000 0006                  bra     $32292
03228E: 562D 8F9F                  addq.b  #3, (-$7061,A5)
032292: 302E 0008                  move.w  ($8,A6), D0
032296: 906D 33FC                  sub.w   ($33fc,A5), D0
03229A: 6500 000E                  bcs     $322aa
03229E: 4A2E 0024                  tst.b   ($24,A6)
0322A2: 6700 000E                  beq     $322b2
0322A6: 6000 000E                  bra     $322b6
0322AA: 4A2E 0024                  tst.b   ($24,A6)
0322AE: 6600 0006                  bne     $322b6
0322B2: 582D 8F9F                  addq.b  #4, (-$7061,A5)
0322B6: 0C6D 0200 33F8             cmpi.w  #$200, ($33f8,A5)
0322BC: 6600 0010                  bne     $322ce
0322C0: 0C2D 0002 33FA             cmpi.b  #$2, ($33fa,A5)
0322C6: 6600 0006                  bne     $322ce
0322CA: 562D 8F9F                  addq.b  #3, (-$7061,A5)
0322CE: 0806 0003                  btst    #$3, D6
0322D2: 6700 0070                  beq     $32344
0322D6: 302D 3614                  move.w  ($3614,A5), D0
0322DA: 6700 002C                  beq     $32308
0322DE: 3200                       move.w  D0, D1
0322E0: 0240 0F00                  andi.w  #$f00, D0
0322E4: 0C40 0200                  cmpi.w  #$200, D0
0322E8: 6600 001E                  bne     $32308
0322EC: 0C01 0004                  cmpi.b  #$4, D1
0322F0: 6500 0012                  bcs     $32304
0322F4: 0C01 000A                  cmpi.b  #$a, D1
0322F8: 6400 000A                  bcc     $32304
0322FC: 5C2D 8FA0                  addq.b  #6, (-$7060,A5)
032300: 6000 0006                  bra     $32308
032304: 562D 8FA0                  addq.b  #3, (-$7060,A5)
032308: 302E 0008                  move.w  ($8,A6), D0
03230C: 906D 357C                  sub.w   ($357c,A5), D0
032310: 6500 000E                  bcs     $32320
032314: 4A2E 0024                  tst.b   ($24,A6)
032318: 6700 000E                  beq     $32328
03231C: 6000 000E                  bra     $3232c
032320: 4A2E 0024                  tst.b   ($24,A6)
032324: 6600 0006                  bne     $3232c
032328: 582D 8FA0                  addq.b  #4, (-$7060,A5)
03232C: 0C6D 0200 3578             cmpi.w  #$200, ($3578,A5)
032332: 6600 0010                  bne     $32344
032336: 0C2D 0002 357A             cmpi.b  #$2, ($357a,A5)
03233C: 6600 0006                  bne     $32344
032340: 562D 8FA0                  addq.b  #3, (-$7060,A5)
032344: 122D 8F9E                  move.b  (-$7062,A5), D1		/1P
032348: 142D 8F9F                  move.b  (-$7061,A5), D2		/2P
03234C: 162D 8FA0                  move.b  (-$7060,A5), D3		/3P    ，内存大的基址移入A0
032350: 41ED 3274                  lea     ($3274,A5), A0
032354: 102D 8F9E                  move.b  (-$7062,A5), D0
032358: B02D 8F9F                  cmp.b   (-$7061,A5), D0
03235C: 6400 000A                  bcc     $32368			/1P>=2P，则跳
032360: 41ED 33F4                  lea     ($33f4,A5), A0
032364: 102D 8F9F                  move.b  (-$7061,A5), D0
032368: B02D 8FA0                  cmp.b   (-$7060,A5), D0
03236C: 6400 0006                  bcc     $32374
032370: 41ED 3574                  lea     ($3574,A5), A0			/
032374: 4E75                       rts
032376: 41ED 3274                  lea     ($3274,A5), A0
03237A: 4A2D 04CD                  tst.b   ($4cd,A5)
03237E: 6700 001E                  beq     $3239e
032382: 082D 0000 04CD             btst    #$0, ($4cd,A5)
032388: 6600 0014                  bne     $3239e
03238C: 41ED 33F4                  lea     ($33f4,A5), A0
032390: 082D 0001 04CD             btst    #$1, ($4cd,A5)
032396: 6600 0006                  bne     $3239e
03239A: 41ED 3574                  lea     ($3574,A5), A0
03239E: 4E75                       rts
0323A0: 7800                       moveq   #$0, D4
0323A2: 362D 05EE                  move.w  ($5ee,A5), D3
0323A6: 163B 3066                  move.b  ($66,PC,D3.w), D3
0323AA: 4A2D 3274                  tst.b   ($3274,A5)
0323AE: 6700 0016                  beq     $323c6
0323B2: 0C6D 0200 3278             cmpi.w  #$200, ($3278,A5)
0323B8: 6600 000C                  bne     $323c6
0323BC: B62D 3354                  cmp.b   ($3354,A5), D3
0323C0: 6200 0004                  bhi     $323c6
0323C4: 7801                       moveq   #$1, D4
0323C6: 4A2D 33F4                  tst.b   ($33f4,A5)
0323CA: 6700 0016                  beq     $323e2
0323CE: 0C6D 0200 33F8             cmpi.w  #$200, ($33f8,A5)
0323D4: 6600 000C                  bne     $323e2
0323D8: B62D 34D4                  cmp.b   ($34d4,A5), D3
0323DC: 6200 0004                  bhi     $323e2
0323E0: 7801                       moveq   #$1, D4
0323E2: 4A2D 3574                  tst.b   ($3574,A5)
0323E6: 6700 0016                  beq     $323fe
0323EA: 0C6D 0200 3578             cmpi.w  #$200, ($3578,A5)
0323F0: 6600 000C                  bne     $323fe
0323F4: B62D 3654                  cmp.b   ($3654,A5), D3
0323F8: 6200 0004                  bhi     $323fe
0323FC: 7801                       moveq   #$1, D4
0323FE: 4A04                       tst.b   D4
032400: 6600 0006                  bne     $32408
032404: 8040                       or.w    D0, D0
032406: 4E75                       rts