053E08: 7000                       moveq   #$0, D0
053E0A: 102E 0004                  move.b  ($4,A6), D0			*D0=0或2，4，6，0为加载，2为活动，4为死亡过程，6为躺地安息
053E0E: 323B 0006                  move.w  ($6,PC,D0.w), D1
053E12: 4EFB 1002                  jmp     ($2,PC,D1.w)			*D0=0,D1=8,跳53E1E//D0=2,D1=FA，跳53F10
053E16: 0008                       dc.w    $0008; ILLEGAL
053E18: 00FA                       dc.w    $00fa; ILLEGAL
053E1A: 1A00                       move.b  D0, D5
053E1C: 1A4A                       dc.w    $1a4a; ILLEGAL
053E1E: 1D7C 0002 0004             move.b  #$2, ($4,A6)
053E24: 1D7C 0000 0087             move.b  #$0, ($87,A6)
053E2A: 1D7C 0016 0003             move.b  #$16, ($3,A6)
053E30: 3D7C 0058 0084             move.w  #$58, ($84,A6)		*好像是敌兵防御力
053E36: 2D7C 0006 EA48 0040        move.l  #$6ea48, ($40,A6)
053E3E: 1D7C 0002 0063             move.b  #$2, ($63,A6)
053E44: 700B                       moveq   #$b, D0
053E46: 4EB9 0000 120E             jsr     $120e.l					*用到($40,A6)地址，NOP好像也没啥影响？
053E4C: 2D7C 0010 3C00 0044        move.l  #$103c00, ($44,A6)
053E54: 422E 004A                  clr.b   ($4a,A6)
053E58: 7007                       moveq   #$7, D0
053E5A: 4EB9 0000 17A4             jsr     $17a4.l
053E60: 1D7C 0018 0022             move.b  #$18, ($22,A6)
053E66: 7005                       moveq   #$5, D0
053E68: 4EB9 0003 1E14             jsr     $31e14.l				*加血
053E6E: 4EB9 0003 2032             jsr     $32032.l				*搜寻123P目标
053E74: 3D48 0076                  move.w  A0, ($76,A6)			*目标放入内存中
053E78: 1D7C 000B 0078             move.b  #$b, ($78,A6)
053E7E: 7000                       moveq   #$0, D0
053E80: 1D40 0079                  move.b  D0, ($79,A6)
053E84: 1D40 007A                  move.b  D0, ($7a,A6)
053E88: 1D40 007B                  move.b  D0, ($7b,A6)
053E8C: 1D40 007D                  move.b  D0, ($7d,A6)
053E90: 1D7C 00C8 0072             move.b  #$c8, ($72,A6)
053E96: 3D7C 0014 00AC             move.w  #$14, ($ac,A6)
053E9C: 1D40 00BC                  move.b  D0, ($bc,A6)
053EA0: 1D40 007A                  move.b  D0, ($7a,A6)
053EA4: 1D40 00B9                  move.b  D0, ($b9,A6)
053EA8: 3D7C 0001 00A6             move.w  #$1, ($a6,A6)
053EAE: 1D7C 0001 00A0             move.b  #$1, ($a0,A6)
053EB4: 1D40 00AA                  move.b  D0, ($aa,A6)
053EB8: 1D40 00AE                  move.b  D0, ($ae,A6)
053EBC: 3B40 8FAC                  move.w  D0, (-$7054,A5)
053EC0: 4EB9 0003 140C             jsr     $3140c.l
053EC6: 1D7C FFFF 007D             move.b  #$ff, ($7d,A6)		*过关BOSS标志位
053ECC: 4EB9 0003 2C5E             jsr     $32c5e.l
053ED2: 3B4E 8F44                  move.w  A6, (-$70bc,A5)
053ED6: 422D 04FC                  clr.b   ($4fc,A5)
053EDA: 4EB9 0007 BEDC             jsr     $7bedc.l				*派兵
053EE0: 1D7C 009D 0023             move.b  #$9d, ($23,A6)
053EE6: 3B6E 006C 8FA2             move.w  ($6c,A6), (-$705e,A5)
053EEC: 7000                       moveq   #$0, D0
053EEE: 7200                       moveq   #$0, D1
053EF0: 41F9 0091 43A0             lea     $9143a0.l, A0
053EF6: 43F9 000B 8452             lea     $b8452.l, A1
053EFC: 7A0F                       moveq   #$f, D5
053EFE: 3010                       move.w  (A0), D0
053F00: 0240 F000                  andi.w  #$f000, D0
053F04: 8059                       or.w    (A1)+, D0
053F06: 30C0                       move.w  D0, (A0)+
053F08: 51CD FFF4                  dbra    D5, $53efe
053F0C: 6000 1266                  bra     $55174

053F10: 0C2E 0004 0005             cmpi.b  #$4, ($5,A6)
053F16: 6600 0012                  bne     $53f2a
053F1A: 0C2E 000E 0006             cmpi.b  #$e, ($6,A6)
053F20: 6F00 0008                  ble     $53f2a
053F24: 1D7C 0000 0006             move.b  #$0, ($6,A6)
053F2A: 0CAE 0202 0200 0004        cmpi.l  #$2020200, ($4,A6)
053F32: 6F00 0008                  ble     $53f3c
053F36: 1D7C 0001 00AE             move.b  #$1, ($ae,A6)
053F3C: 302D 0744                  move.w  ($744,A5), D0
053F40: 0440 0050                  subi.w  #$50, D0
053F44: 322E 0008                  move.w  ($8,A6), D1
053F48: 9240                       sub.w   D0, D1
053F4A: 6A00 000E                  bpl     $53f5a
053F4E: 302D 0744                  move.w  ($744,A5), D0
053F52: 0440 0050                  subi.w  #$50, D0
053F56: 3D40 0008                  move.w  D0, ($8,A6)
053F5A: 302D 0744                  move.w  ($744,A5), D0
053F5E: 0640 01D0                  addi.w  #$1d0, D0
053F62: 322E 0008                  move.w  ($8,A6), D1
053F66: 9041                       sub.w   D1, D0
053F68: 6C00 000E                  bge     $53f78
053F6C: 302D 0744                  move.w  ($744,A5), D0
053F70: 0640 01D0                  addi.w  #$1d0, D0
053F74: 3D40 0008                  move.w  D0, ($8,A6)
053F78: 4A6E 006C                  tst.w   ($6c,A6)
053F7C: 6600 003E                  bne     $53fbc
053F80: 302D 0744                  move.w  ($744,A5), D0
053F84: 0440 0010                  subi.w  #$10, D0
053F88: 322E 0008                  move.w  ($8,A6), D1
053F8C: 9240                       sub.w   D0, D1
053F8E: 6A00 000E                  bpl     $53f9e
053F92: 302D 0744                  move.w  ($744,A5), D0
053F96: 0440 0010                  subi.w  #$10, D0
053F9A: 3D40 0008                  move.w  D0, ($8,A6)
053F9E: 302D 0744                  move.w  ($744,A5), D0
053FA2: 0640 0190                  addi.w  #$190, D0
053FA6: 322E 0008                  move.w  ($8,A6), D1
053FAA: 9041                       sub.w   D1, D0
053FAC: 6C00 000E                  bge     $53fbc
053FB0: 302D 0744                  move.w  ($744,A5), D0
053FB4: 0640 0190                  addi.w  #$190, D0
053FB8: 3D40 0008                  move.w  D0, ($8,A6)
053FBC: 7000                       moveq   #$0, D0
053FBE: 102E 0005                  move.b  ($5,A6), D0
053FC2: D040                       add.w   D0, D0
053FC4: 207B 0004                  movea.l ($4,PC,D0.w), A0
053FC8: 4ED0                       jmp     (A0)
053FCA: 0005 3FDA                  ori.b   #$da, D5
053FCE: 0005 57F4                  ori.b   #$f4, D5
053FD2: 0005 5816                  ori.b   #$16, D5
053FD6: 0002 B35A                  ori.b   #$5a, D2
053FDA: 122E 0079                  move.b  ($79,A6), D1
053FDE: 670C                       beq     $53fec
053FE0: 532E 0079                  subq.b  #1, ($79,A6)
053FE4: 6606                       bne     $53fec
053FE6: 1D7C 000B 0078             move.b  #$b, ($78,A6)
053FEC: 4EB9 0001 2CB4             jsr     $12cb4.l
053FF2: 4A2E 0059                  tst.b   ($59,A6)
053FF6: 6700 0010                  beq     $54008
053FFA: 532E 0059                  subq.b  #1, ($59,A6)
053FFE: 1D7C 0001 002F             move.b  #$1, ($2f,A6)
054004: 6000 0048                  bra     $5404e
054008: 4A2E 007A                  tst.b   ($7a,A6)
05400C: 6700 000A                  beq     $54018
054010: 532E 007A                  subq.b  #1, ($7a,A6)
054014: 6000 0038                  bra     $5404e
054018: 4EB9 0003 2D0C             jsr     $32d0c.l
05401E: 4A2E 00A1                  tst.b   ($a1,A6)
054022: 6600 0008                  bne     $5402c
054026: 4EB9 0003 2B68             jsr     $32b68.l
05402C: 7000                       moveq   #$0, D0
05402E: 102E 0006                  move.b  ($6,A6), D0
054032: 323B 0032                  move.w  ($32,PC,D0.w), D1
054036: 4EBB 102E                  jsr     ($2e,PC,D1.w)
05403A: 6100 01B6                  bsr     $541f2
05403E: 6100 022E                  bsr     $5426e
054042: 6100 026C                  bsr     $542b0
054046: 6100 028A                  bsr     $542d2
05404A: 6100 00AE                  bsr     $540fa
05404E: 4EB9 0003 2F56             jsr     $32f56.l
054054: 4EB9 0000 49CA             jsr     $49ca.l
05405A: 4EF9 0000 4BEA             jmp     $4bea.l
054060: 4EF9 0000 4C0A             jmp     $4c0a.l
054066: 0000 0466                  ori.b   #$66, D0
05406A: 0472 0490 05B4             subi.w  #$490, INVALID 32
054070: 0986                       bclr    D4, D6
054072: 0986                       bclr    D4, D6
054074: 0838 0AEE 08C4             btst    #$ee, $8c4.w
05407A: 050A 08D0                  movep.w ($8d0,A2), D2
05407E: 04CE                       dc.w    $04ce; ILLEGAL
054080: 0BA4                       bclr    D5, -(A4)
054082: 099E                       bclr    D4, (A6)+
054084: 09AA 0ABE                  bclr    D4, ($abe,A2)
054088: 0958                       bchg    D4, (A0)+
05408A: 0A7E                       dc.w    $0a7e; ILLEGAL
05408C: 08E4 06A0                  bset    #$a0, -(A4)
054090: 06EA                       dc.w    $06ea; ILLEGAL
054092: 0A14 0962                  eori.b  #$62, (A4)
054096: 096C 0978                  bchg    D4, ($978,A4)
05409A: 088A                       dc.w    $088a; ILLEGAL
05409C: 7013                       moveq   #$13, D0
05409E: 4EB9 0000 120E             jsr     $120e.l
0540A4: 122D 0017                  move.b  ($17,A5), D1
0540A8: B22D 001C                  cmp.b   ($1c,A5), D1
0540AC: 6700 0012                  beq     $540c0
0540B0: 0C01 0040                  cmpi.b  #$40, D1
0540B4: 6600 000A                  bne     $540c0
0540B8: 06AD 0000 0020 8FA4        addi.l  #$20, (-$705c,A5)
0540C0: 7000                       moveq   #$0, D0
0540C2: 41F9 0090 B458             lea     $90b458.l, A0
0540C8: 102D 8FA4                  move.b  (-$705c,A5), D0
0540CC: 4EB9 0000 18F8             jsr     $18f8.l
0540D2: 7000                       moveq   #$0, D0
0540D4: 7200                       moveq   #$0, D1
0540D6: 41F9 0091 43A0             lea     $9143a0.l, A0
0540DC: 43F9 000B 8172             lea     $b8172.l, A1
0540E2: 202D 8FA4                  move.l  (-$705c,A5), D0
0540E6: D3C0                       adda.l  D0, A1
0540E8: 7A0F                       moveq   #$f, D5
0540EA: 3010                       move.w  (A0), D0
0540EC: 0240 F000                  andi.w  #$f000, D0
0540F0: 8059                       or.w    (A1)+, D0
0540F2: 30C0                       move.w  D0, (A0)+
0540F4: 51CD FFF4                  dbra    D5, $540ea
0540F8: 4E75                       rts
0540FA: 536E 00A6                  subq.w  #1, ($a6,A6)
0540FE: 6600 0088                  bne     $54188
054102: 0C2E 0028 0006             cmpi.b  #$28, ($6,A6)
054108: 6700 003A                  beq     $54144
05410C: 0C2E 002A 0006             cmpi.b  #$2a, ($6,A6)
054112: 6700 0030                  beq     $54144
054116: 4A6D 8FAC                  tst.w   (-$7054,A5)
05411A: 6700 0028                  beq     $54144
05411E: 4EB9 0003 282A             jsr     $3282a.l
054124: 6700 001E                  beq     $54144
054128: 302E 0088                  move.w  ($88,A6), D0
05412C: 906E 0008                  sub.w   ($8,A6), D0
054130: 4440                       neg.w   D0
054132: D06E 0008                  add.w   ($8,A6), D0
054136: 3D40 0088                  move.w  D0, ($88,A6)
05413A: 3D7C 003C 00A6             move.w  #$3c, ($a6,A6)
054140: 6000 14D8                  bra     $5561a
054144: 4EB9 0000 119C             jsr     $119c.l
05414A: 0240 001E                  andi.w  #$1e, D0
05414E: 4A2E 00A0                  tst.b   ($a0,A6)
054152: 6600 0012                  bne     $54166
054156: 3D7B 0032 00A6             move.w  ($32,PC,D0.w), ($a6,A6)
05415C: 1D7C 0001 00A0             move.b  #$1, ($a0,A6)
054162: 6000 000E                  bra     $54172
054166: 3D7B 0042 00A6             move.w  ($42,PC,D0.w), ($a6,A6)
05416C: 1D7C 0000 00A0             move.b  #$0, ($a0,A6)
054172: 4EB9 0003 2032             jsr     $32032.l
054178: 3D48 0076                  move.w  A0, ($76,A6)
05417C: 4EB9 0003 2C5E             jsr     $32c5e.l
054182: 4EB9 0003 2D0C             jsr     $32d0c.l
054188: 4E75                       rts
05418A: 0078 0078 0078             ori.w   #$78, $78.w
054190: 0078 0096 0096             ori.w   #$96, $96.w
054196: 0096 0096 00B4             ori.l   #$9600b4, (A6)
05419C: 00B4 00B4 00B4 00D2        ori.l   #$b400b4, (-$2e,A4,D0.w)
0541A4: 00D2                       dc.w    $00d2; ILLEGAL
0541A6: 00D2                       dc.w    $00d2; ILLEGAL
0541A8: 00D2                       dc.w    $00d2; ILLEGAL
0541AA: 003C 003C                  ori     #$3c, CCR
0541AE: 003C 003C                  ori     #$3c, CCR
0541B2: 0046 0046                  ori.w   #$46, D6
0541B6: 0046 0046                  ori.w   #$46, D6
0541BA: 0050 0050                  ori.w   #$50, (A0)
0541BE: 0050 0050                  ori.w   #$50, (A0)
0541C2: 005A 005A                  ori.w   #$5a, (A2)+
0541C6: 005A 005A                  ori.w   #$5a, (A2)+
0541CA: 4A2E 00A3                  tst.b   ($a3,A6)
0541CE: 6700 0020                  beq     $541f0
0541D2: 322D 05EE                  move.w  ($5ee,A5), D1
0541D6: 142E 0026                  move.b  ($26,A6), D2
0541DA: EA02                       asr.b   #5, D2
0541DC: D202                       add.b   D2, D1
0541DE: 41F9 0007 44BA             lea     $744ba.l, A0
0541E4: 1D70 1000 00A2             move.b  (A0,D1.w), ($a2,A6)
0541EA: 1D7C 0000 00A3             move.b  #$0, ($a3,A6)
0541F0: 4E75                       rts
0541F2: 4E75                       rts
0541F4: 4A2E 00A1                  tst.b   ($a1,A6)
0541F8: 6600 0072                  bne     $5426c
0541FC: 4A2E 00A0                  tst.b   ($a0,A6)
054200: 6700 006A                  beq     $5426c
054204: 0C2E 001A 0006             cmpi.b  #$1a, ($6,A6)
05420A: 6700 0060                  beq     $5426c
05420E: 306E 0076                  movea.w ($76,A6), A0
054212: 0C28 0004 0006             cmpi.b  #$4, ($6,A0)
054218: 6600 0052                  bne     $5426c
05421C: 0C28 000A 0007             cmpi.b  #$a, ($7,A0)
054222: 6700 000C                  beq     $54230
054226: 0C28 000C 0007             cmpi.b  #$c, ($7,A0)
05422C: 6600 003E                  bne     $5426c
054230: 102E 0024                  move.b  ($24,A6), D0
054234: B028 0024                  cmp.b   ($24,A0), D0
054238: 6700 0032                  beq     $5426c
05423C: 3028 0010                  move.w  ($10,A0), D0
054240: 0640 0007                  addi.w  #$7, D0
054244: 906E 0010                  sub.w   ($10,A6), D0
054248: 0C40 000A                  cmpi.w  #$a, D0
05424C: 6200 001E                  bhi     $5426c
054250: 1D7C 004B 0058             move.b  #$4b, ($58,A6)
054256: 422E 005A                  clr.b   ($5a,A6)
05425A: 422E 0059                  clr.b   ($59,A6)
05425E: 1D6D 67BE 005E             move.b  ($67be,A5), ($5e,A6)
054264: 522D 67BE                  addq.b  #1, ($67be,A5)
054268: 6000 10F6                  bra     $55360
05426C: 4E75                       rts
05426E: 4A2E 00A1                  tst.b   ($a1,A6)
054272: 6600 003A                  bne     $542ae
054276: 4A2E 00A0                  tst.b   ($a0,A6)
05427A: 6700 0032                  beq     $542ae
05427E: 306E 0076                  movea.w ($76,A6), A0
054282: 3028 0008                  move.w  ($8,A0), D0
054286: 0640 0068                  addi.w  #$68, D0
05428A: 906E 0008                  sub.w   ($8,A6), D0
05428E: 0C40 00D0                  cmpi.w  #$d0, D0
054292: 6200 0002                  bhi     $54296
054296: 306E 0076                  movea.w ($76,A6), A0
05429A: 3028 0010                  move.w  ($10,A0), D0
05429E: 0640 0007                  addi.w  #$7, D0
0542A2: 906E 0010                  sub.w   ($10,A6), D0
0542A6: 0C40 000A                  cmpi.w  #$a, D0
0542AA: 6300 149C                  bls     $55748
0542AE: 4E75                       rts
0542B0: 4A2E 00A1                  tst.b   ($a1,A6)
0542B4: 6600 001A                  bne     $542d0
0542B8: 4A2E 00A0                  tst.b   ($a0,A6)
0542BC: 6700 0012                  beq     $542d0
0542C0: 0C6E 0010 00AC             cmpi.w  #$10, ($ac,A6)
0542C6: 6600 0008                  bne     $542d0
0542CA: 1B7C 0001 0502             move.b  #$1, ($502,A5)
0542D0: 4E75                       rts
0542D2: 4A2E 00A0                  tst.b   ($a0,A6)
0542D6: 6700 0052                  beq     $5432a
0542DA: 4A2E 00A1                  tst.b   ($a1,A6)
0542DE: 6600 004A                  bne     $5432a
0542E2: 4A2E 00A2                  tst.b   ($a2,A6)
0542E6: 6600 0042                  bne     $5432a
0542EA: 7400                       moveq   #$0, D2
0542EC: 302D 8FA2                  move.w  (-$705e,A5), D0
0542F0: 322E 006C                  move.w  ($6c,A6), D1
0542F4: E440                       asr.w   #2, D0
0542F6: 9240                       sub.w   D0, D1
0542F8: 6B00 0004                  bmi     $542fe
0542FC: 5442                       addq.w  #2, D2
0542FE: 343B 202C                  move.w  ($2c,PC,D2.w), D2
054302: 4EB9 0000 119C             jsr     $119c.l
054308: 0240 001F                  andi.w  #$1f, D0
05430C: B042                       cmp.w   D2, D0
05430E: 6E00 001A                  bgt     $5432a
054312: 306E 0076                  movea.w ($76,A6), A0
054316: 3028 0008                  move.w  ($8,A0), D0
05431A: 0640 0100                  addi.w  #$100, D0
05431E: 906E 0008                  sub.w   ($8,A6), D0
054322: 0C40 0200                  cmpi.w  #$200, D0
054326: 6200 0DF2                  bhi     $5511a
05432A: 4E75                       rts
05432C: 0001 0002                  ori.b   #$2, D1
054330: 0004 0008                  ori.b   #$8, D4
054334: 4E75                       rts
054336: 4A2E 007A                  tst.b   ($7a,A6)
05433A: 6700 000A                  beq     $54346
05433E: 532E 007A                  subq.b  #1, ($7a,A6)
054342: 6000 004C                  bra     $54390
054346: 0C2E 0006 0006             cmpi.b  #$6, ($6,A6)
05434C: 6700 000C                  beq     $5435a
054350: 0C2E 0014 0006             cmpi.b  #$14, ($6,A6)
054356: 6700 0002                  beq     $5435a
05435A: 306E 0076                  movea.w ($76,A6), A0
05435E: 3028 0008                  move.w  ($8,A0), D0
054362: 7230                       moveq   #$30, D1
054364: B06E 0008                  cmp.w   ($8,A6), D0
054368: 6F00 0004                  ble     $5436e
05436C: 4441                       neg.w   D1
05436E: D041                       add.w   D1, D0
054370: 5E40                       addq.w  #7, D0
054372: 906E 0008                  sub.w   ($8,A6), D0
054376: 0C40 000E                  cmpi.w  #$e, D0
05437A: 6200 002E                  bhi     $543aa
05437E: 302E 008A                  move.w  ($8a,A6), D0
054382: 5E40                       addq.w  #7, D0
054384: 906E 0010                  sub.w   ($10,A6), D0
054388: 0C40 000E                  cmpi.w  #$e, D0
05438C: 6200 001C                  bhi     $543aa
054390: 1D7C 0000 00A1             move.b  #$0, ($a1,A6)
054396: 3D7C 0028 00AC             move.w  #$28, ($ac,A6)
05439C: 1D7C 000A 0006             move.b  #$a, ($6,A6)
0543A2: 7000                       moveq   #$0, D0
0543A4: 4EF9 0000 120E             jmp     $120e.l
0543AA: 4E75                       rts
0543AC: 2D7C 0200 0000 0004        move.l  #$2000000, ($4,A6)
0543B4: 7000                       moveq   #$0, D0
0543B6: 4EB9 0000 120E             jsr     $120e.l
0543BC: 7005                       moveq   #$5, D0
0543BE: 4EB9 0000 17A4             jsr     $17a4.l
0543C4: 4EB9 0003 2032             jsr     $32032.l
0543CA: 3D48 0076                  move.w  A0, ($76,A6)
0543CE: 4EB9 0003 2B68             jsr     $32b68.l
0543D4: 4A2E 00AE                  tst.b   ($ae,A6)
0543D8: 6700 006C                  beq     $54446
0543DC: 1D7C 0000 00AE             move.b  #$0, ($ae,A6)
0543E2: 306E 0076                  movea.w ($76,A6), A0
0543E6: 3028 0008                  move.w  ($8,A0), D0
0543EA: 0640 0060                  addi.w  #$60, D0
0543EE: 906E 0008                  sub.w   ($8,A6), D0
0543F2: 0C40 00C0                  cmpi.w  #$c0, D0
0543F6: 6200 004E                  bhi     $54446
0543FA: 3028 0010                  move.w  ($10,A0), D0
0543FE: 0640 0008                  addi.w  #$8, D0
054402: 906E 0010                  sub.w   ($10,A6), D0
054406: 0C40 0010                  cmpi.w  #$10, D0
05440A: 6200 003A                  bhi     $54446
05440E: 4EB9 0000 119C             jsr     $119c.l
054414: 0240 000F                  andi.w  #$f, D0
054418: 0C40 000F                  cmpi.w  #$f, D0
05441C: 6C00 0028                  bge     $54446
054420: 0C2E 0004 007B             cmpi.b  #$4, ($7b,A6)
054426: 6600 001E                  bne     $54446
05442A: 1D7C 004A 0058             move.b  #$4a, ($58,A6)
054430: 422E 005A                  clr.b   ($5a,A6)
054434: 422E 0059                  clr.b   ($59,A6)
054438: 1D6D 67BE 005E             move.b  ($67be,A5), ($5e,A6)
05443E: 522D 67BE                  addq.b  #1, ($67be,A5)
054442: 6000 10AA                  bra     $554ee
054446: 302E 0008                  move.w  ($8,A6), D0
05444A: 906D 0744                  sub.w   ($744,A5), D0
05444E: 0C40 0180                  cmpi.w  #$180, D0
054452: 6C00 000C                  bge     $54460
054456: 4A40                       tst.w   D0
054458: 6B00 0006                  bmi     $54460
05445C: 6000 0052                  bra     $544b0
054460: 4EB9 0000 119C             jsr     $119c.l
054466: 0240 000F                  andi.w  #$f, D0
05446A: 0C40 000A                  cmpi.w  #$a, D0
05446E: 6C00 0040                  bge     $544b0
054472: 0C2E 0004 007B             cmpi.b  #$4, ($7b,A6)
054478: 6600 0036                  bne     $544b0
05447C: 4EB9 0000 119C             jsr     $119c.l
054482: 0240 000F                  andi.w  #$f, D0
054486: 0C40 000A                  cmpi.w  #$a, D0
05448A: 6C00 0008                  bge     $54494
05448E: 3D68 0010 0010             move.w  ($10,A0), ($10,A6)
054494: 1D7C 004A 0058             move.b  #$4a, ($58,A6)
05449A: 422E 005A                  clr.b   ($5a,A6)
05449E: 422E 0059                  clr.b   ($59,A6)
0544A2: 1D6D 67BE 005E             move.b  ($67be,A5), ($5e,A6)
0544A8: 522D 67BE                  addq.b  #1, ($67be,A5)
0544AC: 6000 1040                  bra     $554ee
0544B0: 1B7C 0001 0502             move.b  #$1, ($502,A5)
0544B6: 1D7C FFFF 007D             move.b  #$ff, ($7d,A6)
0544BC: 3D7C 0014 00AC             move.w  #$14, ($ac,A6)
0544C2: 1D7C 0000 00A1             move.b  #$0, ($a1,A6)
0544C8: 6000 123A                  bra     $55704
0544CC: 4A2E 007A                  tst.b   ($7a,A6)
0544D0: 6704                       beq     $544d6
0544D2: 532E 007A                  subq.b  #1, ($7a,A6)
0544D6: 4E75                       rts
0544D8: 536E 00AC                  subq.w  #1, ($ac,A6)
0544DC: 6600 0006                  bne     $544e4
0544E0: 6000 1222                  bra     $55704
0544E4: 4EB9 0003 2B68             jsr     $32b68.l
0544EA: 4EB9 0000 1862             jsr     $1862.l
0544F0: 4EF9 0000 121E             jmp     $121e.l
0544F6: 536E 00AC                  subq.w  #1, ($ac,A6)
0544FA: 6600 0006                  bne     $54502
0544FE: 6000 1204                  bra     $55704
054502: 532E 00A8                  subq.b  #1, ($a8,A6)
054506: 6600 001A                  bne     $54522
05450A: 1D7C 0006 00A8             move.b  #$6, ($a8,A6)
054510: 7000                       moveq   #$0, D0
054512: 1D6E 0022 00A9             move.b  ($22,A6), ($a9,A6)
054518: 4EB9 0003 2A70             jsr     $32a70.l
05451E: 6100 0B70                  bsr     $55090
054522: 4EB9 0003 2B68             jsr     $32b68.l
054528: 4EB9 0000 1862             jsr     $1862.l
05452E: 4EF9 0000 121E             jmp     $121e.l
054534: 532E 00A8                  subq.b  #1, ($a8,A6)
054538: 6600 0022                  bne     $5455c
05453C: 1D7C 0008 00A8             move.b  #$8, ($a8,A6)
054542: 4EB9 0003 24EE             jsr     $324ee.l
054548: 6500 0006                  bcs     $54550
05454C: 6000 11B6                  bra     $55704
054550: 536E 00AC                  subq.w  #1, ($ac,A6)
054554: 6600 0006                  bne     $5455c
054558: 44AE 00B4                  neg.l   ($b4,A6)
05455C: 202E 00B4                  move.l  ($b4,A6), D0
054560: D1AE 0010                  add.l   D0, ($10,A6)
054564: 4EB9 0003 2B68             jsr     $32b68.l
05456A: 4EF9 0000 121E             jmp     $121e.l
054570: 536E 00AC                  subq.w  #1, ($ac,A6)
054574: 6600 0006                  bne     $5457c
054578: 6000 118A                  bra     $55704
05457C: 532E 00A8                  subq.b  #1, ($a8,A6)
054580: 6600 0086                  bne     $54608
054584: 1D7C 001E 00A8             move.b  #$1e, ($a8,A6)
05458A: 1D6E 0022 00A9             move.b  ($22,A6), ($a9,A6)
054590: 306E 0076                  movea.w ($76,A6), A0
054594: 6100 0222                  bsr     $547b8
054598: 5341                       subq.w  #1, D1
05459A: D241                       add.w   D1, D1
05459C: 41F9 0005 500E             lea     $5500e.l, A0
0545A2: 3630 1000                  move.w  (A0,D1.w), D3
0545A6: 304E                       movea.w A6, A0
0545A8: 6100 020E                  bsr     $547b8
0545AC: 5341                       subq.w  #1, D1
0545AE: D641                       add.w   D1, D3
0545B0: 41F9 0005 3034             lea     $53034.l, A0
0545B6: 7200                       moveq   #$0, D1
0545B8: 1230 3000                  move.b  (A0,D3.w), D1
0545BC: 6100 0242                  bsr     $54800
0545C0: D241                       add.w   D1, D1
0545C2: D241                       add.w   D1, D1
0545C4: 0241 001F                  andi.w  #$1f, D1
0545C8: 1D41 00BE                  move.b  D1, ($be,A6)
0545CC: 1D6E 0022 00A9             move.b  ($22,A6), ($a9,A6)
0545D2: 1D6E 00BE 0022             move.b  ($be,A6), ($22,A6)
0545D8: 302D 0744                  move.w  ($744,A5), D0
0545DC: 322E 0008                  move.w  ($8,A6), D1
0545E0: 9240                       sub.w   D0, D1
0545E2: 6A00 0008                  bpl     $545ec
0545E6: 1D7C 0008 0022             move.b  #$8, ($22,A6)
0545EC: 302D 0744                  move.w  ($744,A5), D0
0545F0: 0640 0180                  addi.w  #$180, D0
0545F4: 322E 0008                  move.w  ($8,A6), D1
0545F8: 9041                       sub.w   D1, D0
0545FA: 6C00 0008                  bge     $54604
0545FE: 1D7C 0018 0022             move.b  #$18, ($22,A6)
054604: 6100 0A8A                  bsr     $55090
054608: 4EB9 0003 2B68             jsr     $32b68.l
05460E: 4EB9 0000 1862             jsr     $1862.l
054614: 4EF9 0000 121E             jmp     $121e.l
05461A: 536E 00AC                  subq.w  #1, ($ac,A6)
05461E: 6600 0014                  bne     $54634
054622: 4A2E 00B9                  tst.b   ($b9,A6)
054626: 6600 0D38                  bne     $55360
05462A: 4EB9 0003 2B68             jsr     $32b68.l
054630: 6000 10D2                  bra     $55704
054634: 302E 00AC                  move.w  ($ac,A6), D0
054638: 0240 0003                  andi.w  #$3, D0
05463C: 6600 0042                  bne     $54680
054640: 302E 0088                  move.w  ($88,A6), D0
054644: B06E 0008                  cmp.w   ($8,A6), D0
054648: 6E00 000E                  bgt     $54658
05464C: 2D7C FFFE B000 00B0        move.l  #$fffeb000, ($b0,A6)
054654: 6000 000A                  bra     $54660
054658: 2D7C 0001 5000 00B0        move.l  #$15000, ($b0,A6)
054660: 302E 008A                  move.w  ($8a,A6), D0
054664: B06E 0010                  cmp.w   ($10,A6), D0
054668: 6E00 000E                  bgt     $54678
05466C: 2D7C FFFF 0000 00B4        move.l  #$ffff0000, ($b4,A6)
054674: 6000 000A                  bra     $54680
054678: 2D7C 0001 0000 00B4        move.l  #$10000, ($b4,A6)
054680: 4A2E 00A2                  tst.b   ($a2,A6)
054684: 6700 0008                  beq     $5468e
054688: 532E 00A2                  subq.b  #1, ($a2,A6)
05468C: 4E75                       rts
05468E: 7200                       moveq   #$0, D1
054690: 302E 0088                  move.w  ($88,A6), D0
054694: 0640 0008                  addi.w  #$8, D0
054698: 906E 0008                  sub.w   ($8,A6), D0
05469C: 0C40 0010                  cmpi.w  #$10, D0
0546A0: 6500 000C                  bcs     $546ae
0546A4: 202E 00B0                  move.l  ($b0,A6), D0
0546A8: D1AE 0008                  add.l   D0, ($8,A6)
0546AC: 7201                       moveq   #$1, D1
0546AE: 302E 008A                  move.w  ($8a,A6), D0
0546B2: 0640 0007                  addi.w  #$7, D0
0546B6: 906E 0010                  sub.w   ($10,A6), D0
0546BA: 0C40 000A                  cmpi.w  #$a, D0
0546BE: 6500 000C                  bcs     $546cc
0546C2: 202E 00B4                  move.l  ($b4,A6), D0
0546C6: D1AE 0010                  add.l   D0, ($10,A6)
0546CA: 7201                       moveq   #$1, D1
0546CC: 4A41                       tst.w   D1
0546CE: 6700 0014                  beq     $546e4
0546D2: 6100 FAF6                  bsr     $541ca
0546D6: 4A2E 00A2                  tst.b   ($a2,A6)
0546DA: 6600 0028                  bne     $54704
0546DE: 4EF9 0000 121E             jmp     $121e.l
0546E4: 0C2E 0005 00A2             cmpi.b  #$5, ($a2,A6)
0546EA: 6C00 000A                  bge     $546f6
0546EE: 7000                       moveq   #$0, D0
0546F0: 4EB9 0000 120E             jsr     $120e.l
0546F6: 1D7C 0001 00A3             move.b  #$1, ($a3,A6)
0546FC: 1D7C 0000 00A2             move.b  #$0, ($a2,A6)
054702: 4E75                       rts
054704: 4E75                       rts
054706: 536E 00AC                  subq.w  #1, ($ac,A6)
05470A: 6700 0F94                  beq     $556a0
05470E: 532E 00A8                  subq.b  #1, ($a8,A6)
054712: 6600 001A                  bne     $5472e
054716: 1D7C 000C 00A8             move.b  #$c, ($a8,A6)
05471C: 7000                       moveq   #$0, D0
05471E: 1D6E 0022 00A9             move.b  ($22,A6), ($a9,A6)
054724: 4EB9 0003 2A70             jsr     $32a70.l
05472A: 6100 0964                  bsr     $55090
05472E: 1D7C 0001 0024             move.b  #$1, ($24,A6)
054734: 0C2E 0010 0022             cmpi.b  #$10, ($22,A6)
05473A: 6F00 0008                  ble     $54744
05473E: 1D7C 0000 0024             move.b  #$0, ($24,A6)
054744: 4EB9 0000 1862             jsr     $1862.l
05474A: 4EF9 0000 121E             jmp     $121e.l
054750: 536E 00AC                  subq.w  #1, ($ac,A6)
054754: 6700 0EC4                  beq     $5561a
054758: 306E 0076                  movea.w ($76,A6), A0
05475C: 3028 0008                  move.w  ($8,A0), D0
054760: B06E 0008                  cmp.w   ($8,A6), D0
054764: 6E00 000E                  bgt     $54774
054768: 06AE FFFD C000 0008        addi.l  #-$24000, ($8,A6)
054770: 6000 000A                  bra     $5477c
054774: 06AE 0002 4000 0008        addi.l  #$24000, ($8,A6)
05477C: 3028 0010                  move.w  ($10,A0), D0
054780: B06E 0010                  cmp.w   ($10,A6), D0
054784: 6E00 000E                  bgt     $54794
054788: 06AE FFFE 4000 0010        addi.l  #-$1c000, ($10,A6)
054790: 6000 000A                  bra     $5479c
054794: 06AE 0001 C000 0010        addi.l  #$1c000, ($10,A6)
05479C: 1D7C 0001 0024             move.b  #$1, ($24,A6)
0547A2: 0C2E 0010 0022             cmpi.b  #$10, ($22,A6)
0547A8: 6F00 0008                  ble     $547b2
0547AC: 1D7C 0000 0024             move.b  #$0, ($24,A6)
0547B2: 4EF9 0000 121E             jmp     $121e.l
0547B8: 3028 0010                  move.w  ($10,A0), D0
0547BC: 0440 0100                  subi.w  #$100, D0
0547C0: 0C40 001A                  cmpi.w  #$1a, D0
0547C4: 6F00 0010                  ble     $547d6
0547C8: 0C40 0034                  cmpi.w  #$34, D0
0547CC: 6F00 000E                  ble     $547dc
0547D0: 7201                       moveq   #$1, D1
0547D2: 6000 000A                  bra     $547de
0547D6: 720D                       moveq   #$d, D1
0547D8: 6000 0004                  bra     $547de
0547DC: 7207                       moveq   #$7, D1
0547DE: 3028 0008                  move.w  ($8,A0), D0
0547E2: 0440 11C0                  subi.w  #$11c0, D0
0547E6: 7400                       moveq   #$0, D2
0547E8: 0440 0040                  subi.w  #$40, D0
0547EC: 6B00 0010                  bmi     $547fe
0547F0: 5241                       addq.w  #1, D1
0547F2: 5242                       addq.w  #1, D2
0547F4: 0C42 0005                  cmpi.w  #$5, D2
0547F8: 6700 0004                  beq     $547fe
0547FC: 60EA                       bra     $547e8
0547FE: 4E75                       rts
054800: 0C01 0007                  cmpi.b  #$7, D1
054804: 6F00 0016                  ble     $5481c
054808: 4EB9 0000 119C             jsr     $119c.l
05480E: 0240 000F                  andi.w  #$f, D0
054812: 5101                       subq.b  #8, D1
054814: E901                       asl.b   #4, D1
054816: D001                       add.b   D1, D0
054818: 123B 0004                  move.b  ($4,PC,D0.w), D1
05481C: 4E75                       rts
05481E: 0606 0606                  addi.b  #$6, D6
054822: 0606 0606                  addi.b  #$6, D6
054826: 0404 0404                  subi.b  #$4, D4
05482A: 0404 0404                  subi.b  #$4, D4
05482E: 0606 0606                  addi.b  #$6, D6
054832: 0606 0606                  addi.b  #$6, D6
054836: 0000 0000                  ori.b   #$0, D0
05483A: 0000 0000                  ori.b   #$0, D0
05483E: 0000 0000                  ori.b   #$0, D0
054842: 0000 0000                  ori.b   #$0, D0
054846: 0404 0404                  subi.b  #$4, D4
05484A: 0404 0404                  subi.b  #$4, D4
05484E: 0101                       btst    D0, D1
054850: 0101                       btst    D0, D1
054852: 0101                       btst    D0, D1
054854: 0101                       btst    D0, D1
054856: 0303                       btst    D1, D3
054858: 0303                       btst    D1, D3
05485A: 0303                       btst    D1, D3
05485C: 0303                       btst    D1, D3
05485E: 0707                       btst    D3, D7
054860: 0707                       btst    D3, D7
054862: 0707                       btst    D3, D7
054864: 0707                       btst    D3, D7
054866: 0505                       btst    D2, D5
054868: 0505                       btst    D2, D5
05486A: 0505                       btst    D2, D5
05486C: 0505                       btst    D2, D5
05486E: 0606 0606                  addi.b  #$6, D6
054872: 0606 0606                  addi.b  #$6, D6
054876: 0202 0202                  andi.b  #$2, D2
05487A: 0202 0202                  andi.b  #$2, D2
05487E: 0202 0202                  andi.b  #$2, D2
054882: 0202 0202                  andi.b  #$2, D2
054886: 0404 0404                  subi.b  #$4, D4
05488A: 0404 0404                  subi.b  #$4, D4
05488E: 0202 0202                  andi.b  #$2, D2
054892: 0202 0202                  andi.b  #$2, D2
054896: 0000 0000                  ori.b   #$0, D0
05489A: 0000 0000                  ori.b   #$0, D0
05489E: 4EB9 0000 121E             jsr     $121e.l
0548A4: 6500 0030                  bcs     $548d6
0548A8: 526E 00AC                  addq.w  #1, ($ac,A6)
0548AC: 302E 00AC                  move.w  ($ac,A6), D0
0548B0: 0C40 000C                  cmpi.w  #$c, D0
0548B4: 6D00 000C                  blt     $548c2
0548B8: 3D7C 0000 00AC             move.w  #$0, ($ac,A6)
0548BE: 303C 0000                  move.w  #$0, D0
0548C2: 3200                       move.w  D0, D1
0548C4: 0241 0001                  andi.w  #$1, D1
0548C8: 6600 0004                  bne     $548ce
0548CC: E240                       asr.w   #1, D0
0548CE: 1D7B 001A 0023             move.b  ($1a,PC,D0.w), ($23,A6)
0548D4: 4E75                       rts
0548D6: 1D7C 009F 0023             move.b  #$9f, ($23,A6)
0548DC: 41F9 0090 A29C             lea     $90a29c.l, A0
0548E2: 6100 002A                  bsr     $5490e
0548E6: 6000 0E1C                  bra     $55704
0548EA: 9D9E                       sub.l   D6, (A6)+
0548EC: 9F9D                       sub.l   D7, (A5)+
0548EE: 9E9F                       sub.l   (A7)+, D7
0548F0: 536E 00AC                  subq.w  #1, ($ac,A6)
0548F4: 6700 0004                  beq     $548fa
0548F8: 4E75                       rts
0548FA: 1D7C 009F 0023             move.b  #$9f, ($23,A6)
054900: 41F9 0090 A29C             lea     $90a29c.l, A0
054906: 6100 0006                  bsr     $5490e
05490A: 6000 0DF8                  bra     $55704
05490E: 742C                       moveq   #$2c, D2
054910: 760C                       moveq   #$c, D3
054912: 2448                       movea.l A0, A2
054914: 34FC 0020                  move.w  #$20, (A2)+
054918: 34FC 0000                  move.w  #$0, (A2)+
05491C: 51CB FFF6                  dbra    D3, $54914
054920: 41E8 0080                  lea     ($80,A0), A0
054924: 51CA FFEA                  dbra    D2, $54910
054928: 4E75                       rts
05492A: 4EB9 0000 121E             jsr     $121e.l
054930: 6500 0DD2                  bcs     $55704
054934: 4E75                       rts
054936: 536E 00AC                  subq.w  #1, ($ac,A6)
05493A: 6700 0DC8                  beq     $55704
05493E: 4EB9 0003 2B68             jsr     $32b68.l
054944: 4EF9 0000 121E             jmp     $121e.l
05494A: 536E 00AC                  subq.w  #1, ($ac,A6)
05494E: 6700 0C70                  beq     $555c0
054952: 302E 00AC                  move.w  ($ac,A6), D0
054956: 0240 0007                  andi.w  #$7, D0
05495A: 6600 005C                  bne     $549b8
05495E: 4EB9 0000 483C             jsr     $483c.l
054964: 6500 0052                  bcs     $549b8
054968: 117C 0001 0000             move.b  #$1, ($0,A0)
05496E: 317C 012C 0020             move.w  #$12c, ($20,A0)
054974: 317C 0013 0026             move.w  #$13, ($26,A0)
05497A: 316E 0008 0008             move.w  ($8,A6), ($8,A0)
054980: 316E 0010 0010             move.w  ($10,A6), ($10,A0)
054986: 316E 000C 000C             move.w  ($c,A6), ($c,A0)
05498C: 116E 0024 0024             move.b  ($24,A6), ($24,A0)
054992: 0468 0030 000C             subi.w  #$30, ($c,A0)
054998: 0468 0001 0010             subi.w  #$1, ($10,A0)
05499E: 7028                       moveq   #$28, D0
0549A0: 906E 00AC                  sub.w   ($ac,A6), D0
0549A4: 4A2E 0024                  tst.b   ($24,A6)
0549A8: 6600 000A                  bne     $549b4
0549AC: D168 0008                  add.w   D0, ($8,A0)
0549B0: 6000 0006                  bra     $549b8
0549B4: 9168 0008                  sub.w   D0, ($8,A0)
0549B8: 4EF9 0000 121E             jmp     $121e.l
0549BE: 536E 00AC                  subq.w  #1, ($ac,A6)
0549C2: 6700 0858                  beq     $5521c
0549C6: 4E75                       rts
0549C8: 536E 00AC                  subq.w  #1, ($ac,A6)
0549CC: 6700 088C                  beq     $5525a
0549D0: 4E75                       rts
0549D2: 4EB9 0000 121E             jsr     $121e.l
0549D8: 6500 0244                  bcs     $54c1e
0549DC: 4E75                       rts
0549DE: 536E 00AC                  subq.w  #1, ($ac,A6)
0549E2: 6700 08BE                  beq     $552a2
0549E6: 4EF9 0000 121E             jmp     $121e.l
0549EC: 536E 00AC                  subq.w  #1, ($ac,A6)
0549F0: 6600 0006                  bne     $549f8
0549F4: 6000 0D0E                  bra     $55704
0549F8: 4EB9 0003 2B68             jsr     $32b68.l
0549FE: 4EF9 0000 121E             jmp     $121e.l
054A04: 4EB9 0000 121E             jsr     $121e.l
054A0A: 6500 0332                  bcs     $54d3e
054A0E: 4E75                       rts
054A10: 536E 00AC                  subq.w  #1, ($ac,A6)
054A14: 6700 005A                  beq     $54a70
054A18: 0C6E 0010 00AC             cmpi.w  #$10, ($ac,A6)
054A1E: 6C00 001A                  bge     $54a3a
054A22: 1D7C 0042 0058             move.b  #$42, ($58,A6)
054A28: 422E 005A                  clr.b   ($5a,A6)
054A2C: 422E 0059                  clr.b   ($59,A6)
054A30: 1D6D 67BE 005E             move.b  ($67be,A5), ($5e,A6)
054A36: 522D 67BE                  addq.b  #1, ($67be,A5)
054A3A: 0C6E 0005 00AC             cmpi.w  #$5, ($ac,A6)
054A40: 6C00 000A                  bge     $54a4c
054A44: 7000                       moveq   #$0, D0
054A46: 4EB9 0000 120E             jsr     $120e.l
054A4C: 0C6E 000E 00AC             cmpi.w  #$e, ($ac,A6)
054A52: 6F00 000E                  ble     $54a62
054A56: 4EB9 0000 189C             jsr     $189c.l
054A5C: 4EF9 0000 121E             jmp     $121e.l
054A62: 7012                       moveq   #$12, D0
054A64: 4EB9 0000 120E             jsr     $120e.l
054A6A: 4EF9 0000 121E             jmp     $121e.l
054A70: 1D7C 0000 00AA             move.b  #$0, ($aa,A6)
054A76: 6000 0C8C                  bra     $55704
054A7A: 536E 00AC                  subq.w  #1, ($ac,A6)
054A7E: 6700 005A                  beq     $54ada
054A82: 0C6E 0010 00AC             cmpi.w  #$10, ($ac,A6)
054A88: 6C00 001A                  bge     $54aa4
054A8C: 1D7C 0042 0058             move.b  #$42, ($58,A6)
054A92: 422E 005A                  clr.b   ($5a,A6)
054A96: 422E 0059                  clr.b   ($59,A6)
054A9A: 1D6D 67BE 005E             move.b  ($67be,A5), ($5e,A6)
054AA0: 522D 67BE                  addq.b  #1, ($67be,A5)
054AA4: 0C6E 0005 00AC             cmpi.w  #$5, ($ac,A6)
054AAA: 6C00 000A                  bge     $54ab6
054AAE: 7000                       moveq   #$0, D0
054AB0: 4EB9 0000 120E             jsr     $120e.l
054AB6: 0C6E 000E 00AC             cmpi.w  #$e, ($ac,A6)
054ABC: 6F00 000E                  ble     $54acc
054AC0: 4EB9 0000 189C             jsr     $189c.l
054AC6: 4EF9 0000 121E             jmp     $121e.l
054ACC: 701A                       moveq   #$1a, D0
054ACE: 4EB9 0000 120E             jsr     $120e.l
054AD4: 4EF9 0000 121E             jmp     $121e.l
054ADA: 1D7C 0000 00AA             move.b  #$0, ($aa,A6)
054AE0: 6000 0C22                  bra     $55704
054AE4: 536E 00AC                  subq.w  #1, ($ac,A6)
054AE8: 6700 0030                  beq     $54b1a
054AEC: 0C6E 0010 00AC             cmpi.w  #$10, ($ac,A6)
054AF2: 6C00 001A                  bge     $54b0e
054AF6: 1D7C 0042 0058             move.b  #$42, ($58,A6)
054AFC: 422E 005A                  clr.b   ($5a,A6)
054B00: 422E 0059                  clr.b   ($59,A6)
054B04: 1D6D 67BE 005E             move.b  ($67be,A5), ($5e,A6)
054B0A: 522D 67BE                  addq.b  #1, ($67be,A5)
054B0E: 4EB9 0000 189C             jsr     $189c.l
054B14: 4EF9 0000 121E             jmp     $121e.l
054B1A: 1D7C 0000 00AA             move.b  #$0, ($aa,A6)
054B20: 6000 01BA                  bra     $54cdc
054B24: 536E 00AC                  subq.w  #1, ($ac,A6)
054B28: 6700 001A                  beq     $54b44
054B2C: 306E 0076                  movea.w ($76,A6), A0
054B30: 3028 0008                  move.w  ($8,A0), D0
054B34: 0640 0001                  addi.w  #$1, D0
054B38: 906E 0008                  sub.w   ($8,A6), D0
054B3C: 0C40 0002                  cmpi.w  #$2, D0
054B40: 6200 0006                  bhi     $54b48
054B44: 6000 025A                  bra     $54da0
054B48: 4EB9 0000 1862             jsr     $1862.l
054B4E: 4EF9 0000 121E             jmp     $121e.l
054B54: 536E 00AC                  subq.w  #1, ($ac,A6)
054B58: 6600 0006                  bne     $54b60
054B5C: 6000 0BA6                  bra     $55704
054B60: 326E 0076                  movea.w ($76,A6), A1
054B64: 0C29 0002 0005             cmpi.b  #$2, ($5,A1)
054B6A: 6700 0092                  beq     $54bfe
054B6E: 4EB9 0003 2B94             jsr     $32b94.l
054B74: B200                       cmp.b   D0, D1
054B76: 6700 000A                  beq     $54b82
054B7A: 7001                       moveq   #$1, D0
054B7C: 4EB9 0000 120E             jsr     $120e.l
054B82: 4EB9 0003 2B94             jsr     $32b94.l
054B88: 0800 0000                  btst    #$0, D0
054B8C: 6700 002E                  beq     $54bbc
054B90: 4A6E 001A                  tst.w   ($1a,A6)
054B94: 6A00 0006                  bpl     $54b9c
054B98: 446E 001A                  neg.w   ($1a,A6)
054B9C: 4A6E 0014                  tst.w   ($14,A6)
054BA0: 6A00 0006                  bpl     $54ba8
054BA4: 446E 0014                  neg.w   ($14,A6)
054BA8: 0C6E 0220 0014             cmpi.w  #$220, ($14,A6)
054BAE: 6F00 003C                  ble     $54bec
054BB2: 3D7C 0000 001A             move.w  #$0, ($1a,A6)
054BB8: 6000 0032                  bra     $54bec
054BBC: 0800 0001                  btst    #$1, D0
054BC0: 6700 0034                  beq     $54bf6
054BC4: 4A6E 001A                  tst.w   ($1a,A6)
054BC8: 6B00 0006                  bmi     $54bd0
054BCC: 446E 001A                  neg.w   ($1a,A6)
054BD0: 4A6E 0014                  tst.w   ($14,A6)
054BD4: 6B00 0006                  bmi     $54bdc
054BD8: 446E 0014                  neg.w   ($14,A6)
054BDC: 0C6E FDE0 0014             cmpi.w  #-$220, ($14,A6)
054BE2: 6E00 0008                  bgt     $54bec
054BE6: 3D7C 0000 001A             move.w  #$0, ($1a,A6)
054BEC: 4EB9 0000 189C             jsr     $189c.l
054BF2: 6000 000A                  bra     $54bfe
054BF6: 7000                       moveq   #$0, D0
054BF8: 4EB9 0000 120E             jsr     $120e.l
054BFE: 4EB9 0003 2B68             jsr     $32b68.l
054C04: 4EF9 0000 121E             jmp     $121e.l
054C0A: 536E 00AC                  subq.w  #1, ($ac,A6)
054C0E: 6700 04E8                  beq     $550f8
054C12: 4EB9 0000 1862             jsr     $1862.l
054C18: 4EF9 0000 121E             jmp     $121e.l
054C1E: 1D7C 0001 00A1             move.b  #$1, ($a1,A6)
054C24: 1D7C 0032 0006             move.b  #$32, ($6,A6)
054C2A: 4EB9 0000 119C             jsr     $119c.l
054C30: 0240 003E                  andi.w  #$3e, D0
054C34: 41F9 0007 4DA2             lea     $74da2.l, A0
054C3A: 3D70 0000 00AC             move.w  (A0,D0.w), ($ac,A6)
054C40: 322D 05EE                  move.w  ($5ee,A5), D1
054C44: D241                       add.w   D1, D1
054C46: 41F9 0007 4F62             lea     $74f62.l, A0
054C4C: 3030 1000                  move.w  (A0,D1.w), D0
054C50: D16E 00AC                  add.w   D0, ($ac,A6)
054C54: 6700 0006                  beq     $54c5c
054C58: 6A00 0008                  bpl     $54c62
054C5C: 3D7C 0001 00AC             move.w  #$1, ($ac,A6)
054C62: 3D7C 0001 00AC             move.w  #$1, ($ac,A6)
054C68: 4E75                       rts
054C6A: 1D7C 0001 00A1             move.b  #$1, ($a1,A6)
054C70: 1D7C 001C 0006             move.b  #$1c, ($6,A6)
054C76: 3D7C 001E 00AC             move.w  #$1e, ($ac,A6)
054C7C: 7000                       moveq   #$0, D0
054C7E: 1D6E 0022 00A9             move.b  ($22,A6), ($a9,A6)
054C84: 4EB9 0003 2AAC             jsr     $32aac.l
054C8A: 6100 0404                  bsr     $55090
054C8E: 1D7C 0001 0024             move.b  #$1, ($24,A6)
054C94: 0C2E 0010 0022             cmpi.b  #$10, ($22,A6)
054C9A: 6F00 0008                  ble     $54ca4
054C9E: 1D7C 0000 0024             move.b  #$0, ($24,A6)
054CA4: 4EB9 0003 2B68             jsr     $32b68.l
054CAA: 203C 0000 0060             move.l  #$60, D0
054CB0: 223C 0007 1010             move.l  #$71010, D1
054CB6: 243C 0800 0000             move.l  #$8000000, D2
054CBC: 4EB9 0000 A63C             jsr     $a63c.l
054CC2: 700F                       moveq   #$f, D0
054CC4: 4EF9 0000 120E             jmp     $120e.l
054CCA: 1D7C 0001 00AA             move.b  #$1, ($aa,A6)
054CD0: 7010                       moveq   #$10, D0
054CD2: 4EB9 0000 120E             jsr     $120e.l
054CD8: 6000 000A                  bra     $54ce4
054CDC: 700D                       moveq   #$d, D0
054CDE: 4EB9 0000 120E             jsr     $120e.l
054CE4: 1D7C 0001 00A1             move.b  #$1, ($a1,A6)
054CEA: 1D7C 001E 0006             move.b  #$1e, ($6,A6)
054CF0: 3D7C 0030 00AC             move.w  #$30, ($ac,A6)
054CF6: 7000                       moveq   #$0, D0
054CF8: 3D40 0018                  move.w  D0, ($18,A6)
054CFC: 3D40 001E                  move.w  D0, ($1e,A6)
054D00: 3D40 0016                  move.w  D0, ($16,A6)
054D04: 3D40 001C                  move.w  D0, ($1c,A6)
054D08: 3D7C 0600 0014             move.w  #$600, ($14,A6)
054D0E: 3D7C FFE0 001A             move.w  #$ffe0, ($1a,A6)
054D14: 4A2E 0024                  tst.b   ($24,A6)
054D18: 6600 000A                  bne     $54d24
054D1C: 446E 0014                  neg.w   ($14,A6)
054D20: 446E 001A                  neg.w   ($1a,A6)
054D24: 1D7C 0042 0058             move.b  #$42, ($58,A6)
054D2A: 422E 005A                  clr.b   ($5a,A6)
054D2E: 422E 0059                  clr.b   ($59,A6)
054D32: 1D6D 67BE 005E             move.b  ($67be,A5), ($5e,A6)
054D38: 522D 67BE                  addq.b  #1, ($67be,A5)
054D3C: 4E75                       rts
054D3E: 701A                       moveq   #$1a, D0
054D40: 4EB9 0000 120E             jsr     $120e.l
054D46: 1D7C 0001 00A1             move.b  #$1, ($a1,A6)
054D4C: 1D7C 002C 0006             move.b  #$2c, ($6,A6)
054D52: 3D7C 0030 00AC             move.w  #$30, ($ac,A6)
054D58: 7000                       moveq   #$0, D0
054D5A: 3D40 0018                  move.w  D0, ($18,A6)
054D5E: 3D40 001E                  move.w  D0, ($1e,A6)
054D62: 3D40 0016                  move.w  D0, ($16,A6)
054D66: 3D40 001C                  move.w  D0, ($1c,A6)
054D6A: 3D7C 0900 0014             move.w  #$900, ($14,A6)
054D70: 3D7C FFD0 001A             move.w  #$ffd0, ($1a,A6)
054D76: 4A2E 0024                  tst.b   ($24,A6)
054D7A: 6600 000A                  bne     $54d86
054D7E: 446E 0014                  neg.w   ($14,A6)
054D82: 446E 001A                  neg.w   ($1a,A6)
054D86: 1D7C 0042 0058             move.b  #$42, ($58,A6)
054D8C: 422E 005A                  clr.b   ($5a,A6)
054D90: 422E 0059                  clr.b   ($59,A6)
054D94: 1D6D 67BE 005E             move.b  ($67be,A5), ($5e,A6)
054D9A: 522D 67BE                  addq.b  #1, ($67be,A5)
054D9E: 4E75                       rts
054DA0: 700D                       moveq   #$d, D0
054DA2: 4EB9 0000 120E             jsr     $120e.l
054DA8: 1D7C 0001 00A1             move.b  #$1, ($a1,A6)
054DAE: 1D7C 001E 0006             move.b  #$1e, ($6,A6)
054DB4: 3D7C 0030 00AC             move.w  #$30, ($ac,A6)
054DBA: 7000                       moveq   #$0, D0
054DBC: 3D40 0018                  move.w  D0, ($18,A6)
054DC0: 3D40 001E                  move.w  D0, ($1e,A6)
054DC4: 3D40 0016                  move.w  D0, ($16,A6)
054DC8: 3D40 001C                  move.w  D0, ($1c,A6)
054DCC: 3D7C FFE0 001A             move.w  #$ffe0, ($1a,A6)
054DD2: 4A2E 0024                  tst.b   ($24,A6)
054DD6: 6600 0006                  bne     $54dde
054DDA: 446E 001A                  neg.w   ($1a,A6)
054DDE: 1D7C 0042 0058             move.b  #$42, ($58,A6)
054DE4: 422E 005A                  clr.b   ($5a,A6)
054DE8: 422E 0059                  clr.b   ($59,A6)
054DEC: 1D6D 67BE 005E             move.b  ($67be,A5), ($5e,A6)
054DF2: 522D 67BE                  addq.b  #1, ($67be,A5)
054DF6: 4E75                       rts
054DF8: 4EB9 0003 2B68             jsr     $32b68.l
054DFE: 7011                       moveq   #$11, D0
054E00: 4EB9 0000 120E             jsr     $120e.l
054E06: 1D7C 0001 00A1             move.b  #$1, ($a1,A6)
054E0C: 1D7C 0024 0006             move.b  #$24, ($6,A6)
054E12: 3D7C 0030 00AC             move.w  #$30, ($ac,A6)
054E18: 7000                       moveq   #$0, D0
054E1A: 3D40 0018                  move.w  D0, ($18,A6)
054E1E: 3D40 001E                  move.w  D0, ($1e,A6)
054E22: 3D40 0016                  move.w  D0, ($16,A6)
054E26: 3D40 001C                  move.w  D0, ($1c,A6)
054E2A: 3D7C 0600 0014             move.w  #$600, ($14,A6)
054E30: 3D7C FFE0 001A             move.w  #$ffe0, ($1a,A6)
054E36: 4A2E 0024                  tst.b   ($24,A6)
054E3A: 6700 000A                  beq     $54e46
054E3E: 446E 0014                  neg.w   ($14,A6)
054E42: 446E 001A                  neg.w   ($1a,A6)
054E46: 1D7C 0042 0058             move.b  #$42, ($58,A6)
054E4C: 422E 005A                  clr.b   ($5a,A6)
054E50: 422E 0059                  clr.b   ($59,A6)
054E54: 1D6D 67BE 005E             move.b  ($67be,A5), ($5e,A6)
054E5A: 522D 67BE                  addq.b  #1, ($67be,A5)
054E5E: 4E75                       rts
054E60: 1D7C 0001 00A1             move.b  #$1, ($a1,A6)
054E66: 306E 0076                  movea.w ($76,A6), A0
054E6A: 3028 0008                  move.w  ($8,A0), D0
054E6E: 0640 0030                  addi.w  #$30, D0
054E72: 906E 0008                  sub.w   ($8,A6), D0
054E76: 0C40 0060                  cmpi.w  #$60, D0
054E7A: 6500 027C                  bcs     $550f8
054E7E: 3028 0010                  move.w  ($10,A0), D0
054E82: 0640 0010                  addi.w  #$10, D0
054E86: 906E 0010                  sub.w   ($10,A6), D0
054E8A: 0C40 0020                  cmpi.w  #$20, D0
054E8E: 6500 0268                  bcs     $550f8
054E92: 1D7C 0016 0006             move.b  #$16, ($6,A6)
054E98: 4EB9 0000 119C             jsr     $119c.l
054E9E: 0240 007E                  andi.w  #$7e, D0
054EA2: 3D7B 0006 00AC             move.w  ($6,PC,D0.w), ($ac,A6)
054EA8: 4E75                       rts
054EAA: 0005 0005                  ori.b   #$5, D5
054EAE: 0006 0006                  ori.b   #$6, D6
054EB2: 0007 0007                  ori.b   #$7, D7
054EB6: 0007 0007                  ori.b   #$7, D7
054EBA: 0008                       dc.w    $0008; ILLEGAL
054EBC: 0008                       dc.w    $0008; ILLEGAL
054EBE: 0008                       dc.w    $0008; ILLEGAL
054EC0: 0008                       dc.w    $0008; ILLEGAL
054EC2: 0008                       dc.w    $0008; ILLEGAL
054EC4: 0008                       dc.w    $0008; ILLEGAL
054EC6: 0008                       dc.w    $0008; ILLEGAL
054EC8: 0008                       dc.w    $0008; ILLEGAL
054ECA: 0009                       dc.w    $0009; ILLEGAL
054ECC: 0009                       dc.w    $0009; ILLEGAL
054ECE: 0009                       dc.w    $0009; ILLEGAL
054ED0: 0009                       dc.w    $0009; ILLEGAL
054ED2: 0009                       dc.w    $0009; ILLEGAL
054ED4: 0009                       dc.w    $0009; ILLEGAL
054ED6: 0009                       dc.w    $0009; ILLEGAL
054ED8: 0009                       dc.w    $0009; ILLEGAL
054EDA: 000A                       dc.w    $000a; ILLEGAL
054EDC: 000A                       dc.w    $000a; ILLEGAL
054EDE: 000A                       dc.w    $000a; ILLEGAL
054EE0: 000A                       dc.w    $000a; ILLEGAL
054EE2: 000B                       dc.w    $000b; ILLEGAL
054EE4: 000B                       dc.w    $000b; ILLEGAL
054EE6: 000C                       dc.w    $000c; ILLEGAL
054EE8: 000C                       dc.w    $000c; ILLEGAL
054EEA: 1D6E 0022 00A9             move.b  ($22,A6), ($a9,A6)
054EF0: 4EB9 0003 2A70             jsr     $32a70.l
054EF6: 6100 0198                  bsr     $55090
054EFA: 4EB9 0003 2B68             jsr     $32b68.l
054F00: 7005                       moveq   #$5, D0
054F02: 4EB9 0000 17A4             jsr     $17a4.l
054F08: 1D7C 0000 00A1             move.b  #$0, ($a1,A6)
054F0E: 1D7C 0006 00A8             move.b  #$6, ($a8,A6)
054F14: 3D7C 003C 00AC             move.w  #$3c, ($ac,A6)
054F1A: 1D7C 0006 0006             move.b  #$6, ($6,A6)
054F20: 7001                       moveq   #$1, D0
054F22: 4EF9 0000 120E             jmp     $120e.l
054F28: 1D6E 0022 00A9             move.b  ($22,A6), ($a9,A6)
054F2E: 7030                       moveq   #$30, D0
054F30: 4EB9 0003 2A88             jsr     $32a88.l
054F36: 4EB9 0003 2B68             jsr     $32b68.l
054F3C: 7006                       moveq   #$6, D0
054F3E: 4EB9 0000 17A4             jsr     $17a4.l
054F44: 1D7C 0000 00A1             move.b  #$0, ($a1,A6)
054F4A: 1D7C 0006 00A8             move.b  #$6, ($a8,A6)
054F50: 4EB9 0000 119C             jsr     $119c.l
054F56: 0240 001E                  andi.w  #$1e, D0
054F5A: 41FA 0092                  lea     ($92,PC), A0; ($54fee)
054F5E: 3D70 0000 00AC             move.w  (A0,D0.w), ($ac,A6)
054F64: 1D7C 0014 0006             move.b  #$14, ($6,A6)
054F6A: 1D6E 0022 00A9             move.b  ($22,A6), ($a9,A6)
054F70: 306E 0076                  movea.w ($76,A6), A0
054F74: 6100 F842                  bsr     $547b8
054F78: 5341                       subq.w  #1, D1
054F7A: D241                       add.w   D1, D1
054F7C: 41F9 0005 500E             lea     $5500e.l, A0
054F82: 3630 1000                  move.w  (A0,D1.w), D3
054F86: 304E                       movea.w A6, A0
054F88: 6100 F82E                  bsr     $547b8
054F8C: 5341                       subq.w  #1, D1
054F8E: D641                       add.w   D1, D3
054F90: 41F9 0005 3034             lea     $53034.l, A0
054F96: 7400                       moveq   #$0, D2
054F98: 1430 3000                  move.b  (A0,D3.w), D2
054F9C: 6100 F862                  bsr     $54800
054FA0: D442                       add.w   D2, D2
054FA2: D442                       add.w   D2, D2
054FA4: 0242 001F                  andi.w  #$1f, D2
054FA8: 1D42 00BE                  move.b  D2, ($be,A6)
054FAC: 1D6E 0022 00A9             move.b  ($22,A6), ($a9,A6)
054FB2: 1D6E 00BE 0022             move.b  ($be,A6), ($22,A6)
054FB8: 302D 0744                  move.w  ($744,A5), D0
054FBC: 322E 0008                  move.w  ($8,A6), D1
054FC0: 9240                       sub.w   D0, D1
054FC2: 6A00 0008                  bpl     $54fcc
054FC6: 1D7C 0008 0022             move.b  #$8, ($22,A6)
054FCC: 302D 0744                  move.w  ($744,A5), D0
054FD0: 0640 0180                  addi.w  #$180, D0
054FD4: 322E 0008                  move.w  ($8,A6), D1
054FD8: 9041                       sub.w   D1, D0
054FDA: 6C00 0008                  bge     $54fe4
054FDE: 1D7C 0018 0022             move.b  #$18, ($22,A6)
054FE4: 7001                       moveq   #$1, D0
054FE6: 4EF9 0000 120E             jmp     $120e.l
054FEC: 4E75                       rts
054FEE: 0014 0014                  ori.b   #$14, (A4)
054FF2: 0028 0028 0028             ori.b   #$28, ($28,A0)
054FF8: 0028 0028 0028             ori.b   #$28, ($28,A0)
054FFE: 0028 0028 003C             ori.b   #$28, ($3c,A0)
055004: 003C 003C                  ori     #$3c, CCR
055008: 003C 003C                  ori     #$3c, CCR
05500C: 003C 0000                  ori     #$0, CCR
055010: 0000 0012                  ori.b   #$12, D0
055014: 0024 0036                  ori.b   #$36, -(A4)
055018: 0048                       dc.w    $0048; ILLEGAL
05501A: 005A 006C                  ori.w   #$6c, (A2)+
05501E: 007E                       dc.w    $007e; ILLEGAL
055020: 0090 00A2 00B4             ori.l   #$a200b4, (A0)
055026: 00C6                       dc.w    $00c6; ILLEGAL
055028: 00D8                       dc.w    $00d8; ILLEGAL
05502A: 00EA                       dc.w    $00ea; ILLEGAL
05502C: 00FC                       dc.w    $00fc; ILLEGAL
05502E: 010E 0120                  movep.w ($120,A6), D0
055032: 0132 7001                  btst    D0, ($1,A2,D7.w)
055036: 4EB9 0000 120E             jsr     $120e.l
05503C: 1D7C 0000 00A1             move.b  #$0, ($a1,A6)
055042: 3D7C 003C 00AC             move.w  #$3c, ($ac,A6)
055048: 1D7C 0008 0006             move.b  #$8, ($6,A6)
05504E: 302E 0088                  move.w  ($88,A6), D0
055052: B06E 0008                  cmp.w   ($8,A6), D0
055056: 6E00 000E                  bgt     $55066
05505A: 2D7C FFFE B000 00B0        move.l  #$fffeb000, ($b0,A6)
055062: 6000 000A                  bra     $5506e
055066: 2D7C 0001 5000 00B0        move.l  #$15000, ($b0,A6)
05506E: 302E 008A                  move.w  ($8a,A6), D0
055072: B06E 0010                  cmp.w   ($10,A6), D0
055076: 6E00 000E                  bgt     $55086
05507A: 2D7C FFFF 0000 00B4        move.l  #$ffff0000, ($b4,A6)
055082: 6000 000A                  bra     $5508e
055086: 2D7C 0001 0000 00B4        move.l  #$10000, ($b4,A6)
05508E: 4E75                       rts
055090: 102E 0022                  move.b  ($22,A6), D0
055094: 902E 00A9                  sub.b   ($a9,A6), D0
055098: 0200 001F                  andi.b  #$1f, D0
05509C: 5400                       addq.b  #2, D0
05509E: 0200 001F                  andi.b  #$1f, D0
0550A2: 0C00 0004                  cmpi.b  #$4, D0
0550A6: 6F00 002C                  ble     $550d4
0550AA: 5500                       subq.b  #2, D0
0550AC: 0C00 0010                  cmpi.b  #$10, D0
0550B0: 6E00 0014                  bgt     $550c6
0550B4: 102E 00A9                  move.b  ($a9,A6), D0
0550B8: 5400                       addq.b  #2, D0
0550BA: 0200 001F                  andi.b  #$1f, D0
0550BE: 1D40 0022                  move.b  D0, ($22,A6)
0550C2: 6000 0010                  bra     $550d4
0550C6: 102E 00A9                  move.b  ($a9,A6), D0
0550CA: 5500                       subq.b  #2, D0
0550CC: 0200 001F                  andi.b  #$1f, D0
0550D0: 1D40 0022                  move.b  D0, ($22,A6)
0550D4: 4E75                       rts
0550D6: 1D7C 0001 00A1             move.b  #$1, ($a1,A6)
0550DC: 3D7C 001E 00AC             move.w  #$1e, ($ac,A6)
0550E2: 1D7C 000C 0006             move.b  #$c, ($6,A6)
0550E8: 7000                       moveq   #$0, D0
0550EA: 4EB9 0000 120E             jsr     $120e.l
0550F0: 7005                       moveq   #$5, D0
0550F2: 4EF9 0000 17A4             jmp     $17a4.l
0550F8: 1D7C 0001 00A1             move.b  #$1, ($a1,A6)
0550FE: 3D7C 001E 00AC             move.w  #$1e, ($ac,A6)
055104: 1D7C 000A 0006             move.b  #$a, ($6,A6)
05510A: 7000                       moveq   #$0, D0
05510C: 4EB9 0000 120E             jsr     $120e.l
055112: 7005                       moveq   #$5, D0
055114: 4EF9 0000 17A4             jmp     $17a4.l
05511A: 306E 0076                  movea.w ($76,A6), A0
05511E: 3228 0008                  move.w  ($8,A0), D1
055122: B26E 0008                  cmp.w   ($8,A6), D1
055126: 6C00 0012                  bge     $5513a
05512A: 0641 0080                  addi.w  #$80, D1
05512E: B26E 0008                  cmp.w   ($8,A6), D1
055132: 6E00 05D0                  bgt     $55704
055136: 6000 000E                  bra     $55146
05513A: 0441 0080                  subi.w  #$80, D1
05513E: B26E 0008                  cmp.w   ($8,A6), D1
055142: 6D00 05C0                  blt     $55704
055146: 1D7C 0001 00A1             move.b  #$1, ($a1,A6)
05514C: 3D7C 0028 00AC             move.w  #$28, ($ac,A6)
055152: 1D7C 0026 0006             move.b  #$26, ($6,A6)
055158: 7012                       moveq   #$12, D0
05515A: 4EB9 0000 120E             jsr     $120e.l
055160: 4EB9 0003 2B68             jsr     $32b68.l
055166: 4EB9 0003 2A58             jsr     $32a58.l
05516C: 7005                       moveq   #$5, D0
05516E: 4EF9 0000 17A4             jmp     $17a4.l
055174: 1D7C 0001 00A1             move.b  #$1, ($a1,A6)
05517A: 3D7C 001E 00AC             move.w  #$1e, ($ac,A6)
055180: 1D7C 000E 0006             move.b  #$e, ($6,A6)
055186: 700B                       moveq   #$b, D0
055188: 4EB9 0000 120E             jsr     $120e.l
05518E: 7005                       moveq   #$5, D0
055190: 4EF9 0000 17A4             jmp     $17a4.l
055196: 1D7C 0001 00A1             move.b  #$1, ($a1,A6)
05519C: 3D7C 0078 00AC             move.w  #$78, ($ac,A6)
0551A2: 1D7C 0034 0006             move.b  #$34, ($6,A6)
0551A8: 7017                       moveq   #$17, D0
0551AA: 4EB9 0000 120E             jsr     $120e.l
0551B0: 7005                       moveq   #$5, D0
0551B2: 4EF9 0000 17A4             jmp     $17a4.l
0551B8: 1D7C 0001 00A1             move.b  #$1, ($a1,A6)
0551BE: 1D7C 001A 0006             move.b  #$1a, ($6,A6)
0551C4: 3D7C 0014 00AC             move.w  #$14, ($ac,A6)
0551CA: 4EB9 0000 119C             jsr     $119c.l
0551D0: 0240 000F                  andi.w  #$f, D0
0551D4: D16E 00AC                  add.w   D0, ($ac,A6)
0551D8: 3D7C 0018 00AC             move.w  #$18, ($ac,A6)
0551DE: 701E                       moveq   #$1e, D0
0551E0: 4EB9 0000 17A4             jsr     $17a4.l
0551E6: 4EB9 0003 2A58             jsr     $32a58.l
0551EC: 042E 0008 0022             subi.b  #$8, ($22,A6)
0551F2: 022E 0010 0022             andi.b  #$10, ($22,A6)
0551F8: 062E 0008 0022             addi.b  #$8, ($22,A6)
0551FE: 1D7C 0000 0024             move.b  #$0, ($24,A6)
055204: 0C2E 0010 0022             cmpi.b  #$10, ($22,A6)
05520A: 6E00 0008                  bgt     $55214
05520E: 1D7C 0001 0024             move.b  #$1, ($24,A6)
055214: 7004                       moveq   #$4, D0
055216: 4EF9 0000 120E             jmp     $120e.l
05521C: 1D7C 0040 0058             move.b  #$40, ($58,A6)
055222: 422E 005A                  clr.b   ($5a,A6)
055226: 422E 0059                  clr.b   ($59,A6)
05522A: 1D6D 67BE 005E             move.b  ($67be,A5), ($5e,A6)
055230: 522D 67BE                  addq.b  #1, ($67be,A5)
055234: 1D7C 0001 00A1             move.b  #$1, ($a1,A6)
05523A: 1D7C 0012 0006             move.b  #$12, ($6,A6)
055240: 3D7C 003C 00AC             move.w  #$3c, ($ac,A6)
055246: 1D7C 0000 00B9             move.b  #$0, ($b9,A6)
05524C: 4EB9 0003 2A58             jsr     $32a58.l
055252: 7004                       moveq   #$4, D0
055254: 4EF9 0000 120E             jmp     $120e.l
05525A: 1D7C 006C 0058             move.b  #$6c, ($58,A6)
055260: 422E 005A                  clr.b   ($5a,A6)
055264: 422E 0059                  clr.b   ($59,A6)
055268: 1D6D 67BE 005E             move.b  ($67be,A5), ($5e,A6)
05526E: 522D 67BE                  addq.b  #1, ($67be,A5)
055272: 1D7C 0001 00A1             move.b  #$1, ($a1,A6)
055278: 1D7C 0030 0006             move.b  #$30, ($6,A6)
05527E: 3D7C 003C 00AC             move.w  #$3c, ($ac,A6)
055284: 1D7C 0000 00B9             move.b  #$0, ($b9,A6)
05528A: 4EB9 0003 2A58             jsr     $32a58.l
055290: 7004                       moveq   #$4, D0
055292: 4A6E 00C2                  tst.w   ($c2,A6)
055296: 6700 0004                  beq     $5529c
05529A: 701B                       moveq   #$1b, D0
05529C: 4EF9 0000 120E             jmp     $120e.l
0552A2: 536E 00C0                  subq.w  #1, ($c0,A6)
0552A6: 6700 045C                  beq     $55704
0552AA: 4EB9 0003 2B68             jsr     $32b68.l
0552B0: 1D7C 004B 0058             move.b  #$4b, ($58,A6)
0552B6: 422E 005A                  clr.b   ($5a,A6)
0552BA: 422E 0059                  clr.b   ($59,A6)
0552BE: 1D6D 67BE 005E             move.b  ($67be,A5), ($5e,A6)
0552C4: 522D 67BE                  addq.b  #1, ($67be,A5)
0552C8: 0C6E 0001 00C0             cmpi.w  #$1, ($c0,A6)
0552CE: 6700 001A                  beq     $552ea
0552D2: 1D7C 006C 0058             move.b  #$6c, ($58,A6)
0552D8: 422E 005A                  clr.b   ($5a,A6)
0552DC: 422E 0059                  clr.b   ($59,A6)
0552E0: 1D6D 67BE 005E             move.b  ($67be,A5), ($5e,A6)
0552E6: 522D 67BE                  addq.b  #1, ($67be,A5)
0552EA: 1D7C 0001 00A1             move.b  #$1, ($a1,A6)
0552F0: 1D7C 0030 0006             move.b  #$30, ($6,A6)
0552F6: 3D7C 003C 00AC             move.w  #$3c, ($ac,A6)
0552FC: 1D7C 0000 00B9             move.b  #$0, ($b9,A6)
055302: 4EB9 0003 2A58             jsr     $32a58.l
055308: 322E 00C2                  move.w  ($c2,A6), D1
05530C: E541                       asl.w   #2, D1
05530E: D26E 00C0                  add.w   ($c0,A6), D1
055312: D241                       add.w   D1, D1
055314: 303B 1010                  move.w  ($10,PC,D1.w), D0
055318: 0C40 005A                  cmpi.w  #$5a, D0
05531C: 6700 0028                  beq     $55346
055320: 4EF9 0000 120E             jmp     $120e.l
055326: 0000 0004                  ori.b   #$4, D0
05532A: 0004 0004                  ori.b   #$4, D4
05532E: 0000 001B                  ori.b   #$1b, D0
055332: 001B 001B                  ori.b   #$1b, (A3)+
055336: 0000 005A                  ori.b   #$5a, D0
05533A: 001B 001B                  ori.b   #$1b, (A3)+
05533E: 0000 0004                  ori.b   #$4, D0
055342: 001B 001B                  ori.b   #$1b, (A3)+
055346: 1D7C 0001 00A1             move.b  #$1, ($a1,A6)
05534C: 1D7C 001C 0006             move.b  #$1c, ($6,A6)
055352: 3D7C 001E 00AC             move.w  #$1e, ($ac,A6)
055358: 701C                       moveq   #$1c, D0
05535A: 4EF9 0000 120E             jmp     $120e.l
055360: 4EB9 0003 2B68             jsr     $32b68.l
055366: 1D7C 0040 0058             move.b  #$40, ($58,A6)
05536C: 422E 005A                  clr.b   ($5a,A6)
055370: 422E 0059                  clr.b   ($59,A6)
055374: 1D6D 67BE 005E             move.b  ($67be,A5), ($5e,A6)
05537A: 522D 67BE                  addq.b  #1, ($67be,A5)
05537E: 1D7C 0001 00A1             move.b  #$1, ($a1,A6)
055384: 1D7C 0022 0006             move.b  #$22, ($6,A6)
05538A: 4EB9 0000 119C             jsr     $119c.l
055390: 0240 001E                  andi.w  #$1e, D0
055394: 3D7B 0020 00AC             move.w  ($20,PC,D0.w), ($ac,A6)
05539A: 4A2E 00B9                  tst.b   ($b9,A6)
05539E: 6600 FE7C                  bne     $5521c
0553A2: 1D7C 0000 00B9             move.b  #$0, ($b9,A6)
0553A8: 4EB9 0003 2A58             jsr     $32a58.l
0553AE: 7004                       moveq   #$4, D0
0553B0: 4EF9 0000 120E             jmp     $120e.l
0553B6: 0005 0005                  ori.b   #$5, D5
0553BA: 0005 0005                  ori.b   #$5, D5
0553BE: 0005 0005                  ori.b   #$5, D5
0553C2: 000A                       dc.w    $000a; ILLEGAL
0553C4: 000A                       dc.w    $000a; ILLEGAL
0553C6: 000A                       dc.w    $000a; ILLEGAL
0553C8: 000A                       dc.w    $000a; ILLEGAL
0553CA: 000A                       dc.w    $000a; ILLEGAL
0553CC: 000A                       dc.w    $000a; ILLEGAL
0553CE: 000A                       dc.w    $000a; ILLEGAL
0553D0: 000A                       dc.w    $000a; ILLEGAL
0553D2: 000F                       dc.w    $000f; ILLEGAL
0553D4: 000F                       dc.w    $000f; ILLEGAL
0553D6: 3D7C 0003 00C2             move.w  #$3, ($c2,A6)
0553DC: 6000 0008                  bra     $553e6
0553E0: 3D7C 0000 00C2             move.w  #$0, ($c2,A6)
0553E6: 4EB9 0003 2B68             jsr     $32b68.l
0553EC: 1D7C 006C 0058             move.b  #$6c, ($58,A6)
0553F2: 422E 005A                  clr.b   ($5a,A6)
0553F6: 422E 0059                  clr.b   ($59,A6)
0553FA: 1D6D 67BE 005E             move.b  ($67be,A5), ($5e,A6)
055400: 522D 67BE                  addq.b  #1, ($67be,A5)
055404: 1D7C 0001 00A1             move.b  #$1, ($a1,A6)
05540A: 1D7C 002E 0006             move.b  #$2e, ($6,A6)
055410: 3D7C 0003 00C0             move.w  #$3, ($c0,A6)
055416: 4EB9 0000 119C             jsr     $119c.l
05541C: 0240 001E                  andi.w  #$1e, D0
055420: 3D7B 0020 00AC             move.w  ($20,PC,D0.w), ($ac,A6)
055426: 4A2E 00B9                  tst.b   ($b9,A6)
05542A: 6600 FDF0                  bne     $5521c
05542E: 1D7C 0000 00B9             move.b  #$0, ($b9,A6)
055434: 4EB9 0003 2A58             jsr     $32a58.l
05543A: 7004                       moveq   #$4, D0
05543C: 4EF9 0000 120E             jmp     $120e.l
055442: 0005 0005                  ori.b   #$5, D5
055446: 0005 0005                  ori.b   #$5, D5
05544A: 0005 0005                  ori.b   #$5, D5
05544E: 000A                       dc.w    $000a; ILLEGAL
055450: 000A                       dc.w    $000a; ILLEGAL
055452: 000A                       dc.w    $000a; ILLEGAL
055454: 000A                       dc.w    $000a; ILLEGAL
055456: 000A                       dc.w    $000a; ILLEGAL
055458: 000A                       dc.w    $000a; ILLEGAL
05545A: 000A                       dc.w    $000a; ILLEGAL
05545C: 000A                       dc.w    $000a; ILLEGAL
05545E: 000F                       dc.w    $000f; ILLEGAL
055460: 000F                       dc.w    $000f; ILLEGAL
055462: 3D7C 0002 00C2             move.w  #$2, ($c2,A6)
055468: 6000 0008                  bra     $55472
05546C: 3D7C 0001 00C2             move.w  #$1, ($c2,A6)
055472: 4EB9 0003 2B68             jsr     $32b68.l
055478: 1D7C 0040 0058             move.b  #$40, ($58,A6)
05547E: 422E 005A                  clr.b   ($5a,A6)
055482: 422E 0059                  clr.b   ($59,A6)
055486: 1D6D 67BE 005E             move.b  ($67be,A5), ($5e,A6)
05548C: 522D 67BE                  addq.b  #1, ($67be,A5)
055490: 1D7C 0001 00A1             move.b  #$1, ($a1,A6)
055496: 1D7C 002E 0006             move.b  #$2e, ($6,A6)
05549C: 3D7C 0003 00C0             move.w  #$3, ($c0,A6)
0554A2: 4EB9 0000 119C             jsr     $119c.l
0554A8: 0240 001E                  andi.w  #$1e, D0
0554AC: 3D7B 0020 00AC             move.w  ($20,PC,D0.w), ($ac,A6)
0554B2: 4A2E 00B9                  tst.b   ($b9,A6)
0554B6: 6600 FD64                  bne     $5521c
0554BA: 1D7C 0000 00B9             move.b  #$0, ($b9,A6)
0554C0: 4EB9 0003 2A58             jsr     $32a58.l
0554C6: 701B                       moveq   #$1b, D0
0554C8: 4EF9 0000 120E             jmp     $120e.l
0554CE: 0005 0005                  ori.b   #$5, D5
0554D2: 0005 0005                  ori.b   #$5, D5
0554D6: 0005 0005                  ori.b   #$5, D5
0554DA: 000A                       dc.w    $000a; ILLEGAL
0554DC: 000A                       dc.w    $000a; ILLEGAL
0554DE: 000A                       dc.w    $000a; ILLEGAL
0554E0: 000A                       dc.w    $000a; ILLEGAL
0554E2: 000A                       dc.w    $000a; ILLEGAL
0554E4: 000A                       dc.w    $000a; ILLEGAL
0554E6: 000A                       dc.w    $000a; ILLEGAL
0554E8: 000A                       dc.w    $000a; ILLEGAL
0554EA: 000F                       dc.w    $000f; ILLEGAL
0554EC: 000F                       dc.w    $000f; ILLEGAL
0554EE: 4EB9 0000 119C             jsr     $119c.l
0554F4: 0240 007F                  andi.w  #$7f, D0
0554F8: 6600 0012                  bne     $5550c
0554FC: 4EB9 0001 04F6             jsr     $104f6.l
055502: 6400 0008                  bcc     $5550c
055506: 3D7C 0034 0020             move.w  #$34, ($20,A6)
05550C: 4EB9 0003 2B68             jsr     $32b68.l
055512: 1D7C 0040 0058             move.b  #$40, ($58,A6)
055518: 422E 005A                  clr.b   ($5a,A6)
05551C: 422E 0059                  clr.b   ($59,A6)
055520: 1D6D 67BE 005E             move.b  ($67be,A5), ($5e,A6)
055526: 522D 67BE                  addq.b  #1, ($67be,A5)
05552A: 1D7C 0001 00A1             move.b  #$1, ($a1,A6)
055530: 3D7C 0001 00AC             move.w  #$1, ($ac,A6)
055536: 1D7C 0000 00B9             move.b  #$0, ($b9,A6)
05553C: 1D7C 0012 0006             move.b  #$12, ($6,A6)
055542: 4EB9 0003 2A58             jsr     $32a58.l
055548: 7019                       moveq   #$19, D0
05554A: 4EF9 0000 120E             jmp     $120e.l
055550: 1D7C 002B 0058             move.b  #$2b, ($58,A6)
055556: 422E 005A                  clr.b   ($5a,A6)
05555A: 422E 0059                  clr.b   ($59,A6)
05555E: 1D6D 67BE 005E             move.b  ($67be,A5), ($5e,A6)
055564: 522D 67BE                  addq.b  #1, ($67be,A5)
055568: 1D7C 0001 00A1             move.b  #$1, ($a1,A6)
05556E: 1D7C 0012 0006             move.b  #$12, ($6,A6)
055574: 3D7C 003C 00AC             move.w  #$3c, ($ac,A6)
05557A: 4EB9 0003 2A58             jsr     $32a58.l
055580: 7008                       moveq   #$8, D0
055582: 4EF9 0000 120E             jmp     $120e.l
055588: 1D7C 0031 0058             move.b  #$31, ($58,A6)
05558E: 422E 005A                  clr.b   ($5a,A6)
055592: 422E 0059                  clr.b   ($59,A6)
055596: 1D6D 67BE 005E             move.b  ($67be,A5), ($5e,A6)
05559C: 522D 67BE                  addq.b  #1, ($67be,A5)
0555A0: 1D7C 0001 00A1             move.b  #$1, ($a1,A6)
0555A6: 1D7C 0012 0006             move.b  #$12, ($6,A6)
0555AC: 3D7C 003C 00AC             move.w  #$3c, ($ac,A6)
0555B2: 4EB9 0003 2A58             jsr     $32a58.l
0555B8: 700C                       moveq   #$c, D0
0555BA: 4EF9 0000 120E             jmp     $120e.l
0555C0: 4EB9 0003 2B68             jsr     $32b68.l
0555C6: 7024                       moveq   #$24, D0
0555C8: 4EB9 0000 17A4             jsr     $17a4.l
0555CE: 1D7C 0041 0058             move.b  #$41, ($58,A6)
0555D4: 422E 005A                  clr.b   ($5a,A6)
0555D8: 422E 0059                  clr.b   ($59,A6)
0555DC: 1D6D 67BE 005E             move.b  ($67be,A5), ($5e,A6)
0555E2: 522D 67BE                  addq.b  #1, ($67be,A5)
0555E6: 1D7C 0001 00A1             move.b  #$1, ($a1,A6)
0555EC: 1D7C 0020 0006             move.b  #$20, ($6,A6)
0555F2: 3D7C 001E 00AC             move.w  #$1e, ($ac,A6)
0555F8: 7007                       moveq   #$7, D0
0555FA: 4EF9 0000 120E             jmp     $120e.l
055600: 4A2E 00B9                  tst.b   ($b9,A6)
055604: 6600 FA36                  bne     $5503c
055608: 1D7C 0001 00B9             move.b  #$1, ($b9,A6)
05560E: 7005                       moveq   #$5, D0
055610: 4EB9 0000 120E             jsr     $120e.l
055616: 6000 FA24                  bra     $5503c
05561A: 4EB9 0003 282A             jsr     $3282a.l
055620: 6700 00E2                  beq     $55704
055624: 1D7C 0028 0006             move.b  #$28, ($6,A6)
05562A: 3D7C 0064 00AC             move.w  #$64, ($ac,A6)
055630: 1D7C 001E 00A8             move.b  #$1e, ($a8,A6)
055636: 7000                       moveq   #$0, D0
055638: 1D6E 0022 00A9             move.b  ($22,A6), ($a9,A6)
05563E: 4EB9 0003 2A70             jsr     $32a70.l
055644: 102E 0022                  move.b  ($22,A6), D0
055648: 5000                       addq.b  #8, D0
05564A: 0200 0010                  andi.b  #$10, D0
05564E: 0C00 0010                  cmpi.b  #$10, D0
055652: 6C00 0012                  bge     $55666
055656: 1D7C 0001 0024             move.b  #$1, ($24,A6)
05565C: 1D7C 0000 0022             move.b  #$0, ($22,A6)
055662: 6000 000E                  bra     $55672
055666: 1D7C 0000 0024             move.b  #$0, ($24,A6)
05566C: 1D7C 0010 0022             move.b  #$10, ($22,A6)
055672: 4EB9 0000 119C             jsr     $119c.l
055678: 0240 000F                  andi.w  #$f, D0
05567C: 0C40 000C                  cmpi.w  #$c, D0
055680: 6F00 000E                  ble     $55690
055684: 062E 0010 0022             addi.b  #$10, ($22,A6)
05568A: 022E 0010 0022             andi.b  #$10, ($22,A6)
055690: 700B                       moveq   #$b, D0
055692: 4EB9 0000 17A4             jsr     $17a4.l
055698: 7001                       moveq   #$1, D0
05569A: 4EF9 0000 120E             jmp     $120e.l
0556A0: 4EB9 0003 282A             jsr     $3282a.l
0556A6: 6700 005C                  beq     $55704
0556AA: 1D7C 0000 00A1             move.b  #$0, ($a1,A6)
0556B0: 3D7C 0064 00AC             move.w  #$64, ($ac,A6)
0556B6: 1D7C 002A 0006             move.b  #$2a, ($6,A6)
0556BC: 302E 0088                  move.w  ($88,A6), D0
0556C0: B06E 0008                  cmp.w   ($8,A6), D0
0556C4: 6E00 000E                  bgt     $556d4
0556C8: 2D7C FFFD C000 00B0        move.l  #$fffdc000, ($b0,A6)
0556D0: 6000 000A                  bra     $556dc
0556D4: 2D7C 0002 4000 00B0        move.l  #$24000, ($b0,A6)
0556DC: 302E 008A                  move.w  ($8a,A6), D0
0556E0: B06E 0010                  cmp.w   ($10,A6), D0
0556E4: 6E00 000E                  bgt     $556f4
0556E8: 2D7C FFFE 4000 00B4        move.l  #$fffe4000, ($b4,A6)
0556F0: 6000 000A                  bra     $556fc
0556F4: 2D7C 0001 C000 00B4        move.l  #$1c000, ($b4,A6)
0556FC: 7001                       moveq   #$1, D0
0556FE: 4EF9 0000 120E             jmp     $120e.l
055704: 0C2E 000A 0006             cmpi.b  #$a, ($6,A6)
05570A: 6700 0034                  beq     $55740
05570E: 3D7C 003C 00AC             move.w  #$3c, ($ac,A6)
055714: 7005                       moveq   #$5, D0
055716: 4EB9 0000 17A4             jsr     $17a4.l
05571C: 1D7C 0000 00A1             move.b  #$0, ($a1,A6)
055722: 4EB9 0003 29B8             jsr     $329b8.l
055728: 1D40 00A5                  move.b  D0, ($a5,A6)
05572C: 7200                       moveq   #$0, D1
05572E: 122E 00A0                  move.b  ($a0,A6), D1
055732: 4E71                       nop
055734: 5241                       addq.w  #1, D1
055736: D241                       add.w   D1, D1
055738: 323B 1008                  move.w  ($8,PC,D1.w), D1
05573C: 4EFB 1004                  jmp     ($4,PC,D1.w)
055740: 4E75                       rts
055742: 0000 F7E6                  ori.b   #$e6, D0
055746: F8F2                       dc.w    $f8f2; opcode 1111
055748: 6100 009C                  bsr     $557e6
05574C: 302D 05EC                  move.w  ($5ec,A5), D0
055750: E740                       asl.w   #3, D0
055752: D02E 00A5                  add.b   ($a5,A6), D0
055756: 41F9 0007 3D54             lea     $73d54.l, A0
05575C: D0C0                       adda.w  D0, A0
05575E: 7200                       moveq   #$0, D1
055760: 1210                       move.b  (A0), D1
055762: 4EB9 0000 119C             jsr     $119c.l
055768: 0240 001F                  andi.w  #$1f, D0
05576C: B041                       cmp.w   D1, D0
05576E: 6C00 0006                  bge     $55776
055772: 6000 0004                  bra     $55778
055776: 4E75                       rts
055778: 4EB9 0003 2B68             jsr     $32b68.l
05577E: 7005                       moveq   #$5, D0
055780: 4EB9 0000 17A4             jsr     $17a4.l
055786: 1D7C 0000 00A1             move.b  #$0, ($a1,A6)
05578C: 4EB9 0003 29B8             jsr     $329b8.l
055792: 1D40 00A5                  move.b  D0, ($a5,A6)
055796: 4EB9 0000 119C             jsr     $119c.l
05579C: 0240 001F                  andi.w  #$1f, D0
0557A0: E740                       asl.w   #3, D0
0557A2: 7400                       moveq   #$0, D2
0557A4: 142E 00A5                  move.b  ($a5,A6), D2
0557A8: D042                       add.w   D2, D0
0557AA: 7200                       moveq   #$0, D1
0557AC: 41F9 0007 3D94             lea     $73d94.l, A0
0557B2: D0C0                       adda.w  D0, A0
0557B4: 1210                       move.b  (A0), D1
0557B6: 4E71                       nop
0557B8: 4A2E 00B9                  tst.b   ($b9,A6)
0557BC: 6700 0008                  beq     $557c6
0557C0: 0C01 0001                  cmpi.b  #$1, D1
0557C4: 66B0                       bne     $55776
0557C6: D241                       add.w   D1, D1
0557C8: 323B 1006                  move.w  ($6,PC,D1.w), D1
0557CC: 4EFB 1002                  jmp     ($2,PC,D1.w)
0557D0: FB90                       dc.w    $fb90; opcode 1111
0557D2: FB90                       dc.w    $fb90; opcode 1111
0557D4: FE30                       dc.w    $fe30; opcode 1111
0557D6: FD80                       dc.w    $fd80; opcode 1111
0557D8: FDB8                       dc.w    $fdb8; opcode 1111
0557DA: F49A                       dc.w    $f49a; opcode 1111
0557DC: F94A                       dc.w    $f94a; opcode 1111
0557DE: FC10                       dc.w    $fc10; opcode 1111
0557E0: FC9C                       dc.w    $fc9c; opcode 1111
0557E2: FC92                       dc.w    $fc92; opcode 1111
0557E4: FC06                       dc.w    $fc06; opcode 1111
0557E6: 306E 0076                  movea.w ($76,A6), A0
0557EA: 0C28 0001 0000             cmpi.b  #$1, ($0,A0)
0557F0: 6684                       bne     $55776
0557F2: 4E75                       rts
0557F4: 4EB9 0003 262A             jsr     $3262a.l
0557FA: 302E 006C                  move.w  ($6c,A6), D0
0557FE: 6610                       bne     $55810
055800: 322E 006E                  move.w  ($6e,A6), D1
055804: 670A                       beq     $55810
055806: 4EB9 0000 ACEE             jsr     $acee.l
05580C: 426E 006E                  clr.w   ($6e,A6)
055810: 4EF9 0002 A606             jmp     $2a606.l
055816: 102E 0005                  move.b  ($5,A6), D0
05581A: 323B 0006                  move.w  ($6,PC,D0.w), D1
05581E: 4EFB 1002                  jmp     ($2,PC,D1.w)
055822: 0004 0020                  ori.b   #$20, D4
055826: 4EB9 0000 A5EA             jsr     $a5ea.l
05582C: 3D7C 0078 0080             move.w  #$78, ($80,A6)
055832: 4EB9 0003 25E6             jsr     $325e6.l
055838: 542E 0005                  addq.b  #2, ($5,A6)
05583C: 4EB9 0000 6148             jsr     $6148.l
055842: 302E 0080                  move.w  ($80,A6), D0
055846: 5340                       subq.w  #1, D0
055848: 650A                       bcs     $55854
05584A: 3D40 0080                  move.w  D0, ($80,A6)
05584E: 4EF9 0000 49CA             jmp     $49ca.l
055854: 1D7C 0006 0004             move.b  #$6, ($4,A6)
05585A: 4EF9 0000 49CA             jmp     $49ca.l
055860: 4EF9 0000 49CA             jmp     $49ca.l